(dp0
S'topic_metadata'
p1
(dp2
S'motif_214'
p3
(dp4
S'annotation'
p5
S'Amine loss - Indicative for free NH2 group in fragmented molecule'
p6
ssS'motif_23'
p7
(dp8
g5
S'Unclear yet what these losses relate to.'
p9
ssS'motif_53'
p10
(dp11
g5
S'Losses indicative of a hexose with NH2 group \xe2\x80\x93 EF fits'
p12
ssS'motif_79'
p13
(dp14
g5
S'Fragment ions indicative for trimethylated amine connected to a carboxylic acid group i.e. like in betaine (MzCloud)'
p15
ssS'motif_230'
p16
(dp17
g5
S'Fragments indicative for y-aminobutyric acid (amimobutyrate) substructure (MzCloud) \xe2\x80\x93 present in Beer 2 & Beer 3 \xe2\x80\x93 in beer 3 mainly based on C4H7O2 fragment.'
p18
ssS'motif_68'
p19
(dp20
g5
S'Possibly suggests iminosugar like substructure. Fragments have losses (H2O CO) related to sugar (polyhydroxylated structure)'
p21
ssS'motif_69'
p22
(dp23
g5
S'Fragment ions possibly indicative for ribose substructure (MzCloud)'
p24
ssS'motif_40'
p25
(dp26
g5
S'Imidazole group linked to a carboxylgroup through one CH2 group i.e. like in imidazole acetic acid - Prevalent in Beer1'
p27
ssS'motif_41'
p28
(dp29
g5
S'Unclear yet what these fragments relate to.'
p30
ssS'motif_42'
p31
(dp32
g5
S'Fragments indicative for asparagine substructure (MzCloud) \xe2\x80\x93 prevalent in Beer 3'
p33
ssS'motif_227'
p34
(dp35
g5
S'Possibly related to 14-Cyclohex-2-enedione substructure \xe2\x80\x93 double CO loss between fragments. Could be alkaloid fragments as well.'
p36
ssS'motif_45'
p37
(dp38
g5
S'Fragment ions indicative for pipecolic acid (pipecolate) (MzCloud) - Quite prevalent especially in Beer2'
p39
ssS'motif_60'
p40
(dp41
g5
S'Double water loss i.e. 2*H20 \xe2\x80\x93 Generic feature for metabolites containing several free OH groups attached to a aliphatic chain like sugars.'
p42
ssS'motif_276'
p43
(dp44
g5
S'Alkyl aromatic substructure \xe2\x80\x93 indicative for aromatic ring with 2-carbon alkyl chain attached i.e. phenylethene fragment from ethylbenzene as a result of the fragmentation process.'
p45
ssS'motif_249'
p46
(dp47
g5
S'Unclear yet what these fragments relate to.'
p48
ssS'motif_284'
p49
(dp50
g5
S'Fragments indicative for dihydroxylated benzene ring substructure (MzCloud) \xe2\x80\x93 C6H5O2 fragment corresponds to positively charged fragment with two hydroxyl groups.'
p51
ssS'motif_139'
p52
(dp53
g5
S'Unclear yet what these fragments relate to.'
p54
ssS'motif_211'
p55
(dp56
g5
S'Fragment ions indicative for N-acetylputrescine substructure (MzCloud)'
p57
ssS'motif_115'
p58
(dp59
g5
S'Fragments indicative for [phenylalanine-CHOOH] based substructure'
p60
ssS'motif_280'
p61
(dp62
g5
S'Loss possibly indicative of carboxylic acid group with 1-carbon attached.'
p63
ssS'motif_243'
p64
(dp65
g5
S'Fragment ion indicative for conjugation of a phosphate group  (H4O4P)'
p66
ssS'motif_241'
p67
(dp68
g5
S'Fragments indicative for histidine (C6H10N3O2) substructure (MzCloud)'
p69
ssS'motif_136'
p70
(dp71
g5
S'Unclear what these fragments relate to. Possibly small ring structure (CHN loss)'
p72
ssS'motif_131'
p73
(dp74
g5
S'Fragments indicative of a [hexose-H2O] substructure \xe2\x80\x93 i.e. indicative for a hexose (like glucose) conjugation (MzCloud)'
p75
ssS'motif_130'
p76
(dp77
g5
S'Fragment ions indicative for cytosine and a loss of conjugated deoxyribose \xe2\x80\x93 possibly combined due to many spectra that combine these two substructures. Loss of NH2 group is likely from remaining fragment after loss of deoxyribose. \xe2\x80\x93 Quite prevalent in Beer1'
p78
ssS'motif_156'
p79
(dp80
g5
S'[Ribose (pentose C5-sugar)-H2O] related loss \xe2\x80\x93  indicative for conjugated ribose sugar - EF fits'
p81
ssS'motif_154'
p82
(dp83
g5
S'C13 isotope peaks of proline (abundant ions taken for fragmentation)'
p84
ssS'motif_260'
p85
(dp86
g5
S'Water loss  - indicative of a free hydroxyl group) \xe2\x80\x93 often seen in sugary structures'
p87
ssS'motif_209'
p88
(dp89
g5
S'Possibly suggests 2-pyyrolidine substructure \xe2\x80\x93 Mass2Motif not consistent over the four beers.'
p90
ssS'motif_176'
p91
(dp92
g5
S'Small abundant and generic aromatic fragment found across several mass patterns.'
p93
ssS'motif_97'
p94
(dp95
g5
S'Oxygen-rich losses and fragments also occurring in hexose spectra \xe2\x80\x93 related to M2M 211 (hexose [glucose] conjugatation) \xe2\x80\x93 possibly hydrated-hexose loss?'
p96
ssS'motif_188'
p97
(dp98
g5
S'Unclear yet \xe2\x80\x93 possibly related to methylsuccinic acid\xe2\x80\xa6.'
p99
ssS'motif_222'
p100
(dp101
g5
S'Fragments (and loss) indicative for serine substructure (MzCloud) - Present in Beer 2 & Beer 3'
p102
ssS'motif_67'
p103
(dp104
g5
S'Fragment ions indicative for aconitic acid substructure (C3HO2 fragment is quite specific)'
p105
ssS'motif_202'
p106
(dp107
g5
S'Fragments indicative of [tryptophan-NH3] related substructure (C8H8N is the basic indole skeleton a fused benzene and 5 membered N-containing ring)'
p108
ssS'motif_195'
p109
(dp110
g5
S'Aliphatic amine (NH3 loss indicates free NH2 group coupled to aliphatic chain)'
p111
ssS'motif_158'
p112
(dp113
g5
S'Leucine related substructure (mzCloud) \xe2\x80\x93 prevalent in Beer 2'
p114
ssS'motif_55'
p115
(dp116
g5
S'Fragments indicative for cinnamic acid (cinnamate) substructure (MzCloud)'
p117
ssS'motif_151'
p118
(dp119
g5
S'Fragment and loss of [proline-H2O] - indicative for conjugated proline \xe2\x80\x93 EF fits'
p120
ssS'motif_149'
p121
(dp122
g5
S'Possibly suggests 2-pyridone/ol substructure'
p123
ssS'motif_35'
p124
(dp125
g5
S'Unclear yet what these fragments relate to.'
p126
ssS'motif_34'
p127
(dp128
g5
S'Combination of small losses \xe2\x80\x93 free carboxylgroup and acetyl group loss + loss of NH2 group in some cases'
p129
ssS'motif_98'
p130
(dp131
g5
S'Fragment ions possibly indicative for N-Methyl-oxo-pyrrolidinecarboxylic acid like structure (loss of free carboxyl group)'
p132
ssS'motif_17'
p133
(dp134
g5
S' Fragments indicative for tyrosine substructure (MzCloud)'
p135
ssS'motif_221'
p136
(dp137
g5
S'Unclear yet what these fragments relate to.'
p138
ssS'motif_58'
p139
(dp140
g5
S'Fragments indicative for ethylphenol substructure (i.e. resulting from Tyramine \xe2\x80\x93 MzCloud)'
p141
ssS'motif_13'
p142
(dp143
g5
S'Fragment ions indicative for glutamine (C5H11N2O3) substructure'
p144
ssS'motif_12'
p145
(dp146
g5
S'Combination of small losses (CO2 H2O etc.) \xe2\x80\x93 Unclear if they relate to a substructure loss.'
p147
ssS'motif_220'
p148
(dp149
g5
S'Fragments indicative adenine (C5H6N5) substructure \xe2\x80\x93 most prevalent in Beer3'
p150
ssS'motif_290'
p151
(dp152
g5
S'Two small fragments unclear if they represent a substructure'
p153
ssS'motif_291'
p154
(dp155
g5
S'Unclear if fragments relate to a specific substructure. H2O loss between fragments.'
p156
ssS'motif_294'
p157
(dp158
g5
S'Unclear what these fragments relate to.'
p159
ssS'motif_166'
p160
(dp161
g5
S'Fragment ions indicative for 5-methylcytosine substructure (MzCloud) \xe2\x80\x93 prevalent in Beer 2'
p162
ssS'motif_19'
p163
(dp164
g5
S'Fragments indicative for ferulic acid based substructure (MzCloud)'
p165
ssS'motif_104'
p166
(dp167
g5
S'Unclear what these fragments relate to.'
p168
ssS'motif_2'
p169
(dp170
g5
S'Small nitrogen containing fragment ion \xe2\x80\x93 often proline or ornithine derived \xe2\x80\x93 most abundant fragment in all four beers'
p171
ssS'motif_7'
p172
(dp173
g5
S'Possibly suggests 5-aminopentanol substructure'
p174
ssS'motif_128'
p175
(dp176
g5
S'N/O-Acetylation (Beer 3)'
p177
ssS'motif_102'
p178
(dp179
g5
S'Possibly suggests alkylbenzene substructure.'
p180
ssS'motif_4'
p181
(dp182
g5
S'Unclear yet what these fragments relate to.'
p183
ssS'motif_174'
p184
(dp185
g5
S'Fragment ions indicative for pyroglutamic acid (pyroglutamate) or glutamine (both in MzCloud) \xe2\x80\x93 structure can be formed from glutamic acid (glutamate) in the mass spectrometer as well.'
p186
ssS'motif_207'
p187
(dp188
g5
S'Unclear what these fragments relate to.'
p189
ssS'motif_250'
p190
(dp191
g5
S'Combination of small losses (i.e. NH3 and CH2O2)'
p192
ssS'motif_121'
p193
(dp194
g5
S'Possibly suggests 4-aminooxane-4-carboxylic acid like substructure?'
p195
ssS'motif_162'
p196
(dp197
g5
S'Fragment ions indicative for guanine (C5H5N5O) based substructure'
p198
ssS'motif_262'
p199
(dp200
g5
S'Combined loss of H2O and CO \xe2\x80\x93 indicative for free carboxylic acid group (COOH) \xe2\x80\x93 generic substructure in amino acids and organic acids'
p201
ssS'motif_72'
p202
(dp203
g5
S'Possibly suggests methoxy-1H-indole-23-dione (methoxy-isatin) substructure'
p204
ssS'motif_272'
p205
(dp206
g5
S'Unclear if fragments relate to a specific substructure.'
p207
ssS'motif_91'
p208
(dp209
g5
S'Fragments possibly suggest benzene ring substituted with one hydroxyl and one NH2 group (fragments point to orientation from 3-hydroxyanthranilic acid \xe2\x80\x93 i.e. MzCloud) \xe2\x80\x93 prevalent in Beer 2 and 4'
p210
ssS'motif_270'
p211
(dp212
g5
S'Unclear yet what these fragments relate to.'
p213
ssS'motif_233'
p214
(dp215
g5
S'Combination of small losses (CO2 H2O etc.) \xe2\x80\x93 Unclear if they relate to a substructure loss.'
p216
ssS'motif_168'
p217
(dp218
g5
S'Unclear yet what these fragments relate to.'
p219
ssS'motif_226'
p220
(dp221
g5
S'Loss of [hexose-H2O] \xe2\x80\x93 indication of hexose conjugation (for example glucose)'
p222
ssS'motif_82'
p223
(dp224
g5
S'Possibly suggests agmatine based substructure (C5H15N4) with unknown conjugation\xe2\x80\xa6.'
p225
ssS'motif_90'
p226
(dp227
g5
S'Combinations of small generic losses like CH2O2 + CH4O = C2H6O3'
p228
sssS'beta'
p229
(dp230
g3
(dp231
S'loss_17.02527_NH3'
p232
cnumpy.core.multiarray
scalar
p233
(cnumpy
dtype
p234
(S'f8'
p235
I0
I1
tp236
Rp237
(I3
S'<'
p238
NNNI-1
I-1
I0
tp239
bS'\xcaHna\x15>\xec?'
p240
tp241
Rp242
sS'fragment_366.10831'
p243
g233
(g237
S'Q\xddN\x19\x07\x06\x95?'
p244
tp245
Rp246
sS'fragment_348.09775'
p247
g233
(g237
S'20]\xe7X#Q?'
p248
tp249
Rp250
ssg7
(dp251
S'fragment_165.05388'
p252
g233
(g237
S'\xf9G[\xd7\\w\x87?'
p253
tp254
Rp255
sS'loss_92.01076'
p256
g233
(g237
S'\x96\x9bJI\xd2\xd4x?'
p257
tp258
Rp259
sS'loss_180.0276'
p260
g233
(g237
S'\xb3\xacU(^\xeet?'
p261
tp262
Rp263
sS'fragment_207.0655'
p264
g233
(g237
S'\x82\xe5\xed\tun{?'
p265
tp266
Rp267
sS'loss_181.05877'
p268
g233
(g237
S'\xcf\xbd`\x07\xea\x07q?'
p269
tp270
Rp271
sS'fragment_153.05501'
p272
g233
(g237
S'\xc5b\xb2g\xbbTr?'
p273
tp274
Rp275
sS'loss_178.0476'
p276
g233
(g237
S'\xda9X\xb3\xc4\xf8\xb4?'
p277
tp278
Rp279
sS'loss_64.01501'
p280
g233
(g237
S'\xdc6P\xf8\xd0]\x8b?'
p281
tp282
Rp283
sS'loss_190.04752_C7H10O6'
p284
g233
(g237
S'\x13\xc1\x1f\xee\xebz\xc4?'
p285
tp286
Rp287
sS'fragment_179.06939'
p288
g233
(g237
S'\x8c@\x9c\xa9\xa3!z?'
p289
tp290
Rp291
sS'fragment_193.05069'
p292
g233
(g237
S'\xc5b\xb2g\xbbTr?'
p293
tp294
Rp295
sS'loss_144.04202_C6H8O4'
p296
g233
(g237
S'\xaa\xbb\xc4\x86\x03/\xcb?'
p297
tp298
Rp299
sS'loss_118.02645'
p300
g233
(g237
S'\xb11\x1eN1vo?'
p301
tp302
Rp303
sS'loss_106.02643'
p304
g233
(g237
S'\xe6\x91\xfe\x97\xff\x10\x8a?'
p305
tp306
Rp307
sS'fragment_81.03334'
p308
g233
(g237
S'\xa9Q\xa7\x88/;v?'
p309
tp310
Rp311
sS'fragment_253.07174'
p312
g233
(g237
S'\xb3\xacU(^\xeet?'
p313
tp314
Rp315
sS'fragment_65.03878'
p316
g233
(g237
S'\xfe\t\x91K\xa6\x0fe?'
p317
tp318
Rp319
sS'fragment_137.05989'
p320
g233
(g237
S'H\xec\x94\x94\xc1\xb8_?'
p321
tp322
Rp323
sS'fragment_79.05416'
p324
g233
(g237
S'\xd7\x9d\xd7\xcc\xebBj?'
p325
tp326
Rp327
sS'loss_170.05775'
p328
g233
(g237
S'\xb3\xacU(^\xeet?'
p329
tp330
Rp331
sS'loss_134.02129'
p332
g233
(g237
S'\xfe\t\x91K\xa6\x0fe?'
p333
tp334
Rp335
sS'fragment_183.06523'
p336
g233
(g237
S'\xb3\xacU(^\xeet?'
p337
tp338
Rp339
sS'fragment_235.0593'
p340
g233
(g237
S'\x96\x9bJI\xd2\xd4x?'
p341
tp342
Rp343
sS'fragment_123.04343'
p344
g233
(g237
S'\xd7\x9d\xd7\xcc\xebBj?'
p345
tp346
Rp347
sS'fragment_67.05454'
p348
g233
(g237
S'\xeaS4\x0cI\xa9g?'
p349
tp350
Rp351
sS'loss_120.04228'
p352
g233
(g237
S'\x95\xc4\x07\x926RU?'
p353
tp354
Rp355
sS'fragment_151.03864'
p356
g233
(g237
S'\xb3\xacU(^\xeet?'
p357
tp358
Rp359
sS'loss_192.06323'
p360
g233
(g237
S'\xa9Q\xa7\x88/;v?'
p361
tp362
Rp363
sS'loss_165.06334'
p364
g233
(g237
S'\x95\xc4\x07\x926RU?'
p365
tp366
Rp367
sS'fragment_225.07565'
p368
g233
(g237
S'f\xd4\xe2*\xe9T\x7f?'
p369
tp370
Rp371
sS'loss_148.037'
p372
g233
(g237
S'H\xafn\xfd-\xe2\x92?'
p373
tp374
Rp375
sS'loss_166.04766'
p376
g233
(g237
S'C\xc9\xe7\xc1Dq\xa6?'
p377
tp378
Rp379
sS'loss_66.03051'
p380
g233
(g237
S'\x9f\xf6\xf8\xe8\x00\x88w?'
p381
tp382
Rp383
sS'loss_195.07429'
p384
g233
(g237
S'>T\xc0]\xff.\x94?'
p385
tp386
Rp387
sS'fragment_101.02307'
p388
g233
(g237
S'\x9f\xf6\xf8\xe8\x00\x88w?'
p389
tp390
Rp391
sS'loss_194.04244'
p392
g233
(g237
S'\xa7\x9e\xb5\x983\x91\xa1?'
p393
tp394
Rp395
sS'fragment_127.03868'
p396
g233
(g237
S'(O\xf1G\xcdh\xb7?'
p397
tp398
Rp399
sS'loss_112.03765'
p400
g233
(g237
S'y\x8a?jF\xbb|?'
p401
tp402
Rp403
sS'loss_176.03175'
p404
g233
(g237
S'\x16Yf\xb6\xe8\x90\x83?'
p405
tp406
Rp407
sS'fragment_55.01824'
p408
g233
(g237
S'N\xae\xca\x08\x0bQ\x8d?'
p409
tp410
Rp411
sS'loss_78.03031'
p412
g233
(g237
S'\xc5b\xb2g\xbbTr?'
p413
tp414
Rp415
ssg10
(dp416
S'loss_199.10566'
p417
g233
(g237
S'\xc9\x92\xa6\x81\x9e)o?'
p418
tp419
Rp420
sS'fragment_286.12935'
p421
g233
(g237
S'\xc9\x92\xa6\x81\x9e)o?'
p422
tp423
Rp424
sS'loss_71.0569'
p425
g233
(g237
S'\xa3\xd2Cjw\x1fR?'
p426
tp427
Rp428
sS'loss_183.11033'
p429
g233
(g237
S'n\xf9\xab\x06Y\xd7\x82?'
p430
tp431
Rp432
sS'loss_164.06819'
p433
g233
(g237
S'\x06\xb0E\xef\x9e\xf6Z?'
p434
tp435
Rp436
sS'fragment_162.07573'
p437
g233
(g237
S'\r>d\x1b\xad\x1cd?'
p438
tp439
Rp440
sS'loss_171.10978'
p441
g233
(g237
S'\x11\x85s1\xb4\xafp?'
p442
tp443
Rp444
sS'fragment_324.14133'
p445
g233
(g237
S'f\xb5\xa4\xfcvRf?'
p446
tp447
Rp448
sS'fragment_247.12901'
p449
g233
(g237
S'p\x1bf\xa0\xd4\xf3l?'
p450
tp451
Rp452
sS'loss_187.10649'
p453
g233
(g237
S'\x06\xb0E\xef\x9e\xf6Z?'
p454
tp455
Rp456
sS'fragment_282.13229'
p457
g233
(g237
S"\xc1b\x17'\n\r\x90?"
p458
tp459
Rp460
sS'fragment_300.14368'
p461
g233
(g237
S'\xa3\xd2Cjw\x1fR?'
p462
tp463
Rp464
sS'loss_152.06826'
p465
g233
(g237
S'\xa3\xd2Cjw\x1fR?'
p466
tp467
Rp468
sS'loss_101.06807'
p469
g233
(g237
S'\xb4\xc6#:\xe3\xe6a?'
p470
tp471
Rp472
sS'loss_197.08988_C6H15NO6'
p473
g233
(g237
S'@\r\xad\xd0\xb9d\xd4?'
p474
tp475
Rp476
sS'fragment_185.09254'
p477
g233
(g237
S'\r>d\x1b\xad\x1cd?'
p478
tp479
Rp480
sS'fragment_229.11687'
p481
g233
(g237
S'%Q\xf6xo\xf2}?'
p482
tp483
Rp484
sg268
g233
(g237
S'U\xc1\xc4,\x0b\x8bV?'
p485
tp486
Rp487
sS'fragment_187.07638'
p488
g233
(g237
S'\r>d\x1b\xad\x1cd?'
p489
tp490
Rp491
sS'fragment_265.1369'
p492
g233
(g237
S'\x06\xb0E\xef\x9e\xf6Z?'
p493
tp494
Rp495
sS'loss_189.12028'
p496
g233
(g237
S'\xc8&\xd5\xc5\xf6kx?'
p497
tp498
Rp499
sS'loss_179.07913_C6H13NO5'
p500
g233
(g237
S"'u\xf3\x9b\xee\x0e\xdb?"
p501
tp502
Rp503
sg384
g233
(g237
S'p\x1bf\xa0\xd4\xf3l?'
p504
tp505
Rp506
sS'loss_167.07941'
p507
g233
(g237
S'\x06\xb0E\xef\x9e\xf6Z?'
p508
tp509
Rp510
sS'fragment_102.05568'
p511
g233
(g237
S'U\xc1\xc4,\x0b\x8bV?'
p512
tp513
Rp514
sS'fragment_107.0708'
p515
g233
(g237
S'|\xb7Y\x8d\xfb\x19\x9b?'
p516
tp517
Rp518
sS'fragment_439.13843'
p519
g233
(g237
S'g\xc6\x81\xc9\xb4`\x9b?'
p520
tp521
Rp522
ssg13
(dp523
S'fragment_132.113'
p524
g233
(g237
S'\x08}\x91\x9e\x02O\xa1?'
p525
tp526
Rp527
sS'loss_189.136'
p528
g233
(g237
S'-\x11\xcd\xc6\x04\x81\x80?'
p529
tp530
Rp531
sS'fragment_118.08614_C5H12NO2'
p532
g233
(g237
S'\x80\xe5+\x9c\xae\xc1\xd7?'
p533
tp534
Rp535
sS'fragment_58.06552_C3H8N'
p536
g233
(g237
S'\xe8\xf7\xf0=.{\x9d?'
p537
tp538
Rp539
sS'loss_159.10064'
p540
g233
(g237
S'\xaf\x98\x9a\xaa\x1b0f?'
p541
tp542
Rp543
sS'fragment_97.07555'
p544
g233
(g237
S'\xdb%\xd5\xae\xbc\xfbP?'
p545
tp546
Rp547
sS'loss_117.07884'
p548
g233
(g237
S'\xa1\xf01c\xae\xc6\xd3?'
p549
tp550
Rp551
sS'loss_130.12154'
p552
g233
(g237
S'\\\xe3 \xa7.#\xa1?'
p553
tp554
Rp555
sS'fragment_100.98821'
p556
g233
(g237
S'[[\xe8\x9c;vV?'
p557
tp558
Rp559
sS'loss_190.12004'
p560
g233
(g237
S'y\x1f\x02\xe4\xea(z?'
p561
tp562
Rp563
sS'loss_134.10512'
p564
g233
(g237
S'o3\xa4![\xedh?'
p565
tp566
Rp567
sS'fragment_90.09183'
p568
g233
(g237
S'\xaf\x98\x9a\xaa\x1b0f?'
p569
tp570
Rp571
sS'fragment_60.05587'
p572
g233
(g237
S'\x98\x1cj:\xccOs?'
p573
tp574
Rp575
sS'fragment_59.07323_C3H9N'
p576
g233
(g237
S'\xb7[\x1br_Q\x97?'
p577
tp578
Rp579
sS'fragment_235.16458'
p580
g233
(g237
S'.c\x87\xbc\x9c\xb5`?'
p581
tp582
Rp583
sS'fragment_131.12915'
p584
g233
(g237
S'\xaf\x98\x9a\xaa\x1b0f?'
p585
tp586
Rp587
sS'loss_36.03224'
p588
g233
(g237
S'[[\xe8\x9c;vV?'
p589
tp590
Rp591
sS'loss_177.09988'
p592
g233
(g237
S'My[\xf9\xe3\x9c\x84?'
p593
tp594
Rp595
ssg16
(dp596
S'fragment_162.10299'
p597
g233
(g237
S'v\x0f\xa3\xa7\xf6\xdbi?'
p598
tp599
Rp600
sS'fragment_234.11111'
p601
g233
(g237
S'\r\xf2K\x85\x85Lg?'
p602
tp603
Rp604
sS'fragment_210.89943'
p605
g233
(g237
S'\xb3\x83\xd3\x11mP\x91?'
p606
tp607
Rp608
sS'loss_86.03669_C4H6O2'
p609
g233
(g237
S'58\xdc!\xa2J|?'
p610
tp611
Rp612
sS'fragment_70.02895'
p613
g233
(g237
S'\x8e\xc2\x7f\x98\xdd\x0cr?'
p614
tp615
Rp616
sS'fragment_70.03679'
p617
g233
(g237
S'58\xdc!\xa2J|?'
p618
tp619
Rp620
sS'loss_17.015'
p621
g233
(g237
S'\x8e\xc2\x7f\x98\xdd\x0cr?'
p622
tp623
Rp624
sS'fragment_187.88232'
p625
g233
(g237
S'i6\xa4\xcb\x9b\x04\xa0?'
p626
tp627
Rp628
sS'fragment_87.04391_C4H7O2'
p629
g233
(g237
S'AN\xcd\xcf\x9d\x03\xe9?'
p630
tp631
Rp632
ssg19
(dp633
S'loss_196.05793'
p634
g233
(g237
S'\xab\x16\x98\xb1|\xc4P?'
p635
tp636
Rp637
sS'fragment_84.0442'
p638
g233
(g237
S'3\x96\x8f\x18\xba\x15w?'
p639
tp640
Rp641
sS'fragment_212.12758_C11H18NO3'
p642
g233
(g237
S'\xdaW-0c\xf9\x94?'
p643
tp644
Rp645
sS'fragment_58.02903'
p646
g233
(g237
S'gN\x83;/R\x8f?'
p647
tp648
Rp649
sS'fragment_145.04997'
p650
g233
(g237
S"\xde\xac'\xca6\xdaW?"
p651
tp652
Rp653
sS'fragment_59.03687'
p654
g233
(g237
S'\xb7\xe2\xf0\xef\xde\xacw?'
p655
tp656
Rp657
sS'fragment_100.03925'
p658
g233
(g237
S'\xa3l\xa3}\xd5\x02c?'
p659
tp660
Rp661
sS'fragment_99.04454'
p662
g233
(g237
S'\x84La\xd7$\x97p?'
p663
tp664
Rp665
sS'loss_162.08877'
p666
g233
(g237
S'\xd1\xad8\xfc\xbb7{?'
p667
tp668
Rp669
sS'fragment_128.10733'
p670
g233
(g237
S'\xd1\xad8\xfc\xbb7{?'
p671
tp672
Rp673
sS'fragment_57.0337'
p674
g233
(g237
S']\x93\\\x82*\xfd|?'
p675
tp676
Rp677
sS'fragment_276.1435_C12H22NO6'
p678
g233
(g237
S'\x1f1t+\x0e\xff\xb5?'
p679
tp680
Rp681
sS'fragment_87.03155'
p682
g233
(g237
S'w^\xa4\x8e\x07\x88\xa2?'
p683
tp684
Rp685
sS'fragment_97.02839'
p686
g233
(g237
S'\x17\xa9\xe3\x01"d\xa0?'
p687
tp688
Rp689
sg280
g233
(g237
S'e,\x1f1t+\x86?'
p690
tp691
Rp692
sS'loss_115.07548'
p693
g233
(g237
S'\xf8f=Q\xb6\xd1n?'
p694
tp695
Rp696
sS'fragment_258.13325_C12H20NO5'
p697
g233
(g237
S'\xe2\xdf\xbdYO\x94\xb8?'
p698
tp699
Rp700
sS'fragment_392.19254'
p701
g233
(g237
S'\x00\x112\x85]\x93\\?'
p702
tp703
Rp704
sS'loss_167.11544'
p705
g233
(g237
S"\xef\xde\xac'\xca6Z?"
p706
tp707
Rp708
sS'fragment_53.03888'
p709
g233
(g237
S'\xab\x16\x98\xb1|\xc4P?'
p710
tp711
Rp712
sS'fragment_72.04409'
p713
g233
(g237
S'\xef\xcdz\xa2l\xa3m?'
p714
tp715
Rp716
sS'loss_180.09989'
p717
g233
(g237
S'\x9a\xd3\xe0\xce\x8b\xd4a?'
p718
tp719
Rp720
sS'loss_149.99856'
p721
g233
(g237
S'\xc0{\xb3\x9e(\xdbx?'
p722
tp723
Rp724
sS'loss_191.11566'
p725
g233
(g237
S'\x00\x00\x00\x00\x00\x00p?'
p726
tp727
Rp728
sS'loss_188.10499'
p729
g233
(g237
S'\xb0k\x92KP\xa5\x87?'
p730
tp731
Rp732
sS'loss_192.09993'
p733
g233
(g237
S'\x11C\xb7\xe2\xf0\xef^?'
p734
tp735
Rp736
sS'loss_164.1044'
p737
g233
(g237
S'\x86n\xc5\xe1\xdf\xbd\x81?'
p738
tp739
Rp740
sS'fragment_161.0686'
p741
g233
(g237
S'\xd8F\xfb\xaa\x05f\x84?'
p742
tp743
Rp744
sS'fragment_116.10678'
p745
g233
(g237
S'\x00\x112\x85]\x93\\?'
p746
tp747
Rp748
sS'fragment_132.10154'
p749
g233
(g237
S'\xde\x9b\xf5D\xd9F\xa1?'
p750
tp751
Rp752
sS'loss_149.07601'
p753
g233
(g237
S'\x8d\xe5#\x86n\xc5q?'
p754
tp755
Rp756
sS'loss_161.99858'
p757
g233
(g237
S'\x08\x99\xc2\xaeI.q?'
p758
tp759
Rp760
sS'loss_151.09664'
p761
g233
(g237
S'\xab\x16\x98\xb1|\xc4P?'
p762
tp763
Rp764
sS'fragment_276.09534_C12H22NO6'
p765
g233
(g237
S'\x91:\x1e B\xa6`?'
p766
tp767
Rp768
sS'fragment_69.07013'
p769
g233
(g237
S'E\xeax\x80\x08\x99\x8a?'
p770
tp771
Rp772
sS'fragment_100.11239'
p773
g233
(g237
S'\xab\x16\x98\xb1|\xc4P?'
p774
tp775
Rp776
sS'fragment_140.10643'
p777
g233
(g237
S'\xbcH\x1d\x0f\x10!S?'
p778
tp779
Rp780
sg308
g233
(g237
S'\n\xbb&\xb9\x04U\x82?'
p781
tp782
Rp783
sS'fragment_73.0285'
p784
g233
(g237
S'\x84La\xd7$\x97p?'
p785
tp786
Rp787
sg396
g233
(g237
S'\xd8F\xfb\xaa\x05f\x84?'
p788
tp789
Rp790
sS'fragment_53.00259'
p791
g233
(g237
S'\x112\x85]\x93\\r?'
p792
tp793
Rp794
sS'loss_182.11564'
p795
g233
(g237
S'\xa3l\xa3}\xd5\x02c?'
p796
tp797
Rp798
sS'fragment_164.10654'
p799
g233
(g237
S'\x08\x99\xc2\xaeI.q?'
p800
tp801
Rp802
sS'fragment_55.05466'
p803
g233
(g237
S'\xef\xcdz\xa2l\xa3m?'
p804
tp805
Rp806
sS'fragment_438.1972'
p807
g233
(g237
S'\xbcH\x1d\x0f\x10!S?'
p808
tp809
Rp810
sS'loss_179.11525'
p811
g233
(g237
S'\xe9x\x80\x08\x99\xc2\x86?'
p812
tp813
Rp814
sS'loss_197.12626'
p815
g233
(g237
S'\xc5\xd0\xad8\xfc\xbbg?'
p816
tp817
Rp818
sS'loss_150.0596'
p819
g233
(g237
S'\xbcH\x1d\x0f\x10!S?'
p820
tp821
Rp822
sS'fragment_86.09652'
p823
g233
(g237
S'\xf9wo\xd6\x13e\xa9?'
p824
tp825
Rp826
sS'fragment_230.13972_C11H20NO4'
p827
g233
(g237
S'+\x0e\xff\xee\xcdz\xb5?'
p828
tp829
Rp830
sS'fragment_68.04977'
p831
g233
(g237
S'\xc5\xd0\xad8\xfc\xbbg?'
p832
tp833
Rp834
sS'loss_195.11043'
p835
g233
(g237
S'\xef\xcdz\xa2l\xa3m?'
p836
tp837
Rp838
sS'fragment_138.05452'
p839
g233
(g237
S'\xde\x9b\xf5D\xd9Fk?'
p840
tp841
Rp842
sS'loss_150.08907'
p843
g233
(g237
S'\xbcH\x1d\x0f\x10!S?'
p844
tp845
Rp846
sS'fragment_109.02882'
p847
g233
(g237
S'\xbcH\x1d\x0f\x10!S?'
p848
tp849
Rp850
sS'loss_82.02672'
p851
g233
(g237
S'\xab\x16\x98\xb1|\xc4P?'
p852
tp853
Rp854
sS'fragment_210.1142'
p855
g233
(g237
S'\x84La\xd7$\x97p?'
p856
tp857
Rp858
sS'fragment_112.03981'
p859
g233
(g237
S'\xf43\xa7\xc1\x9d\x17\x9d?'
p860
tp861
Rp862
sS'fragment_70.06514'
p863
g233
(g237
S'\x8d\xe5#\x86n\xc5q?'
p864
tp865
Rp866
sS'fragment_69.03368'
p867
g233
(g237
S'\xa9\xe3\x01"d\n\x97?'
p868
tp869
Rp870
sS'fragment_110.06084'
p871
g233
(g237
S'\xbcH\x1d\x0f\x10!S?'
p872
tp873
Rp874
sS'loss_138.08914'
p875
g233
(g237
S"\xde\xac'\xca6\xdaW?"
p876
tp877
Rp878
sS'fragment_210.11135'
p879
g233
(g237
S'\xcdip\xe7E\xeah?'
p880
tp881
Rp882
sS'fragment_144.10184'
p883
g233
(g237
S',\x1f1t+\x0e\x87?'
p884
tp885
Rp886
sS'loss_64.01664'
p887
g233
(g237
S'D\xc8\x14vMr\x81?'
p888
tp889
Rp890
sS'fragment_248.15'
p891
g233
(g237
S'\xfa\xaa\x05f,\x1f\x89?'
p892
tp893
Rp894
sS'fragment_83.04894'
p895
g233
(g237
S"\xef\xde\xac'\xca6Z?"
p896
tp897
Rp898
sS'fragment_96.04413'
p899
g233
(g237
S'D\xc8\x14vMry?'
p900
tp901
Rp902
sS'fragment_168.1022'
p903
g233
(g237
S"\xde\xac'\xca6\xdaW?"
p904
tp905
Rp906
sS'fragment_88.03919'
p907
g233
(g237
S'[`\xc6\xf2\x11C\xa5?'
p908
tp909
Rp910
sS'fragment_143.05755'
p911
g233
(g237
S'\xd8F\xfb\xaa\x05f\x84?'
p912
tp913
Rp914
sS'fragment_84.08071'
p915
g233
(g237
S'\xbc7\xeb\x89\xb2\x8df?'
p916
tp917
Rp918
sg613
g233
(g237
S'\xef\xcdz\xa2l\xa3m?'
p919
tp920
Rp921
sS'fragment_56.04977'
p922
g233
(g237
S']\x93\\\x82*\xfd|?'
p923
tp924
Rp925
sS'fragment_98.09683'
p926
g233
(g237
S'N\x83;/R\xc7\x8b?'
p927
tp928
Rp929
sS'loss_149.10524'
p930
g233
(g237
S'\x8d\xe5#\x86n\xc5q?'
p931
tp932
Rp933
sS'fragment_276.11298_C12H22NO6'
p934
g233
(g237
S'!S\xd85\xc9%\xa6?'
p935
tp936
Rp937
sS'fragment_85.02832'
p938
g233
(g237
S'\xfa\xaa\x05f,\x1f\x89?'
p939
tp940
Rp941
sS'fragment_126.05438'
p942
g233
(g237
S'\xa3l\xa3}\xd5\x02c?'
p943
tp944
Rp945
sg408
g233
(g237
S'\x9e\x17\xa9\xe3\x01"t?'
p946
tp947
Rp948
sS'loss_133.08524'
p949
g233
(g237
S'\x08\x99\xc2\xaeI.q?'
p950
tp951
Rp952
sg592
g233
(g237
S"\xde\xac'\xca6\xdaW?"
p953
tp954
Rp955
ssg22
(dp956
g709
g233
(g237
S'\x0fW\xfa8\x15\x8f\x93?'
p957
tp958
Rp959
sS'fragment_57.0337_C3H5O'
p960
g233
(g237
S'\xe5\xbe~\xd3?W\xc8?'
p961
tp962
Rp963
sg791
g233
(g237
S'"\xd4\xe7\xcd\xe0\x07\x93?'
p964
tp965
Rp966
sg662
g233
(g237
S'\x07\xff\xbc\xf3\xe2\xeb\x86?'
p967
tp968
Rp969
sS'fragment_99.04377'
p970
g233
(g237
S'\x9d\xcb\xbfYD1\x99?'
p971
tp972
Rp973
sg408
g233
(g237
S'\x0b\x1d\xa7u\xfe|\x98?'
p974
tp975
Rp976
sS'fragment_69.03368_C4H5O'
p977
g233
(g237
S'\xeehP\x83\xceA\xe4?'
p978
tp979
Rp980
ssg25
(dp981
S'fragment_56.04977_C3H6N'
p982
g233
(g237
S'cB\xf3\x10\x93\x98\xb2?'
p983
tp984
Rp985
sS'loss_59.00065'
p986
g233
(g237
S'\xc5?\xe0y\xf5\xe5\x82?'
p987
tp988
Rp989
sS'fragment_139.03836'
p990
g233
(g237
S'\xf0[\x06DR6V?'
p991
tp992
Rp993
sS'fragment_129.06581_C5H9N2O2'
p994
g233
(g237
S'}\xb6\x1a\xff\xe7\xaf\xc0?'
p995
tp996
Rp997
sS'loss_134.07748'
p998
g233
(g237
S'\xfa\xb6\xf47uEb?'
p999
tp1000
Rp1001
sS'fragment_167.08152'
p1002
g233
(g237
S'\xf0[\x06DR6V?'
p1003
tp1004
Rp1005
sS'fragment_155.14348'
p1006
g233
(g237
S'\xf1\xe4\xf7Y\x9e`]?'
p1007
tp1008
Rp1009
sS'fragment_240.09821'
p1010
g233
(g237
S'\x84\xddctb\x1b\x81?'
p1011
tp1012
Rp1013
sS'fragment_230.10146'
p1014
g233
(g237
S'\x7f\x04\xdfX\xe7\x04m?'
p1015
tp1016
Rp1017
sS'fragment_257.12534'
p1018
g233
(g237
S'\xa7\x97\x13\r\xf8*\x89?'
p1019
tp1020
Rp1021
sS'fragment_83.06041_C4H7N2'
p1022
g233
(g237
S'#3\xf4\xf6s\xbd\xdb?'
p1023
tp1024
Rp1025
sS'loss_172.09494'
p1026
g233
(g237
S'\xfd?\xe6M\xc1oi?'
p1027
tp1028
Rp1029
sS'fragment_142.08566'
p1030
g233
(g237
S'\xc1Fh\xb7\x99\x17r?'
p1031
tp1032
Rp1033
sS'fragment_97.08451'
p1034
g233
(g237
S'\xf1\xe4\xf7Y\x9e`]?'
p1035
tp1036
Rp1037
sS'fragment_143.09007'
p1038
g233
(g237
S'\x87\xf6\xce\xdd\x9e\xa1~?'
p1039
tp1040
Rp1041
sS'loss_47.01308'
p1042
g233
(g237
S'\xc1Fh\xb7\x99\x17r?'
p1043
tp1044
Rp1045
sS'loss_18.06533'
p1046
g233
(g237
S'd\xac\xa5\xf1\x186\x80?'
p1047
tp1048
Rp1049
sS'loss_45.02195'
p1050
g233
(g237
S'|{\xedB\x9b\xdae?'
p1051
tp1052
Rp1053
sS'fragment_101.07126'
p1054
g233
(g237
S'F\x94R\xd8\x0b\xd7|?'
p1055
tp1056
Rp1057
sS'loss_173.07975'
p1058
g233
(g237
S'\xf1\xe4\xf7Y\x9e`]?'
p1059
tp1060
Rp1061
sS'loss_132.09749'
p1062
g233
(g237
S'\xc8\x00\x15fI\xe2\x96?'
p1063
tp1064
Rp1065
sS'fragment_212.09239'
p1066
g233
(g237
S'\xf0[\x06DR6V?'
p1067
tp1068
Rp1069
sS'fragment_230.15978'
p1070
g233
(g237
S'\xc0r\x03\xf6\x8d\xdc\xa6?'
p1071
tp1072
Rp1073
sS'loss_71.00026'
p1074
g233
(g237
S'B\x0ba\xc2\xbf\xacu?'
p1075
tp1076
Rp1077
sS'fragment_55.02948'
p1078
g233
(g237
S'\x83m\xdd\xc7Rww?'
p1079
tp1080
Rp1081
ssg28
(dp1082
S'loss_177.99867'
p1083
g233
(g237
S'\x13\x97_y5#h?'
p1084
tp1085
Rp1086
sS'fragment_126.05563'
p1087
g233
(g237
S'+\xb1F\xb21v\x98?'
p1088
tp1089
Rp1090
sg791
g233
(g237
S'M\xe8X1\xa2S\\?'
p1091
tp1092
Rp1093
sS'fragment_279.06081'
p1094
g233
(g237
S'\x96\xfd\xf9\x99\xfa\x0cs?'
p1095
tp1096
Rp1097
sS'fragment_166.07418'
p1098
g233
(g237
S'\xe8U~\x1f\xda%d?'
p1099
tp1100
Rp1101
sS'fragment_292.10596'
p1102
g233
(g237
S':\xe5S\xbb\xf3w\x8f?'
p1103
tp1104
Rp1105
sS'fragment_172.0613'
p1106
g233
(g237
S'\xae=\x99\xa9\t5\x9a?'
p1107
tp1108
Rp1109
sS'fragment_130.05051_C5H8NO3'
p1110
g233
(g237
S'\xa4\xf0\x8f+2(\xe8?'
p1111
tp1112
Rp1113
sS'loss_129.06127'
p1114
g233
(g237
S'yq\x07_\x92\x14\xa6?'
p1115
tp1116
Rp1117
sg831
g233
(g237
S'\x9e+\xbe\x1f\x96\xfb\x89?'
p1118
tp1119
Rp1120
ssg31
(dp1121
S'loss_63.97936'
p1122
g233
(g237
S'f\x87\xaf\x8b\xf0lg?'
p1123
tp1124
Rp1125
sS'fragment_216.03424'
p1126
g233
(g237
S'f\x87\xaf\x8b\xf0lg?'
p1127
tp1128
Rp1129
sS'fragment_88.0218_C3H6NO2'
p1130
g233
(g237
S'\xde4\xc1\xe5#\n\x85?'
p1131
tp1132
Rp1133
sS'fragment_202.978'
p1134
g233
(g237
S'%\x9d\x8eZ\x1a\xbax?'
p1135
tp1136
Rp1137
sS'fragment_130.06595'
p1138
g233
(g237
S'X\x0c\xb7\xab\x0cQ\x84?'
p1139
tp1140
Rp1141
sS'loss_76.06362'
p1142
g233
(g237
S'K\x90\xcb\xb6\xa5\x10}?'
p1143
tp1144
Rp1145
sS'loss_101.04757'
p1146
g233
(g237
S'\xa2\xde1\xc3\xcbM\x90?'
p1147
tp1148
Rp1149
sS'fragment_74.02353_C2H4NO2'
p1150
g233
(g237
S'\x9a\xda\xf6\xdd\xd8\x16\xd0?'
p1151
tp1152
Rp1153
sS'fragment_88.07588_C3H6NO2'
p1154
g233
(g237
S'>?\xb7Bw\x9e{?'
p1155
tp1156
Rp1157
sS'fragment_262.05205'
p1158
g233
(g237
S'\xe5\x07)\x162\x7fq?'
p1159
tp1160
Rp1161
sS'fragment_158.04483'
p1162
g233
(g237
S'"\xfe\x1c\xd4\x13\x8d\xa1?'
p1163
tp1164
Rp1165
sS'fragment_175.12257'
p1166
g233
(g237
S'7lO\x12i)\x8f?'
p1167
tp1168
Rp1169
sS'fragment_60.04477'
p1170
g233
(g237
S'\x84\xbdi\x82\xcbG\x94?'
p1171
tp1172
Rp1173
sS'loss_132.05302'
p1174
g233
(g237
S'\xd2\xe3\xacq\xf5\x97\x83?'
p1175
tp1176
Rp1177
sS'fragment_87.05542_C3H7N2O'
p1178
g233
(g237
S'3\xf3\xab\xedq\xfb\xb3?'
p1179
tp1180
Rp1181
sS'fragment_116.0344_C4H6NO3'
p1182
g233
(g237
S'A\xa9d\xe5?\xeb\x93?'
p1183
tp1184
Rp1185
sS'fragment_88.03919_C3H6NO2'
p1186
g233
(g237
S'\xc83\x15\x89 (\xcc?'
p1187
tp1188
Rp1189
sS'fragment_133.06148_C4H9N2O3'
p1190
g233
(g237
S'\xf0\xde\xa6P\xe6\x9e\xb3?'
p1191
tp1192
Rp1193
sS'fragment_70.02895_C3H4NO'
p1194
g233
(g237
S'\x94\xed\xb8\xb3\x13\x8a\xa3?'
p1195
tp1196
Rp1197
sS'loss_188.07979'
p1198
g233
(g237
S'~\xff\xf3\x07\x98\xa7\x88?'
p1199
tp1200
Rp1201
ssg34
(dp1202
S'fragment_272.11017'
p1203
g233
(g237
S'\x98\xf2\xc5\xdc\xa63S?'
p1204
tp1205
Rp1206
sg316
g233
(g237
S'\x1f\xda\xb50\x16/\xb1?'
p1207
tp1208
Rp1209
sg709
g233
(g237
S'\xc2\xc8\xd3(G\xd0\x83?'
p1210
tp1211
Rp1212
sS'fragment_83.04894_C5H7O'
p1213
g233
(g237
S'\x02\n)\xd0\x8e5\xd4?'
p1214
tp1215
Rp1216
sS'fragment_111.04428_C6H7O2'
p1217
g233
(g237
S'Y\\T\x81x\x81\xce?'
p1218
tp1219
Rp1220
sS'loss_188.06804'
p1221
g233
(g237
S'3,VN\x81\xf7V?'
p1222
tp1223
Rp1224
sS'fragment_55.01824_C4H7'
p1225
g233
(g237
S'\xc6X\xbcD\xe99\x8d?'
p1226
tp1227
Rp1228
sS'fragment_55.05466_C4H7'
p1229
g233
(g237
S'\x00\r(\xa6\x15\x98\xcf?'
p1230
tp1231
Rp1232
ssg37
(dp1233
S'fragment_56.04977_C3H6N'
p1234
g233
(g237
S'{\xbee\xe0TC\xae?'
p1235
tp1236
Rp1237
sS'fragment_175.14413'
p1238
g233
(g237
S'|\xe8U50\xc2h?'
p1239
tp1240
Rp1241
sS'fragment_84.08071_C5H10N'
p1242
g233
(g237
S'l;\xe5\xf0a6\xe8?'
p1243
tp1244
Rp1245
sS'fragment_67.05454_C5H7'
p1246
g233
(g237
S'\x8c\n\xc1\t\t"\x8f?'
p1247
tp1248
Rp1249
sS'fragment_130.08705'
p1250
g233
(g237
S'%\xb7\xaa\xcd\xc1bt?'
p1251
tp1252
Rp1253
sS'fragment_129.10193'
p1254
g233
(g237
S'\xe7[\x06N5\xe4\x81?'
p1255
tp1256
Rp1257
sS'fragment_331.14401'
p1258
g233
(g237
S'\x87\xee\x98[\x0ekV?'
p1259
tp1260
Rp1261
sS'fragment_130.08587'
p1262
g233
(g237
S'{\xbee\xe0TC\xae?'
p1263
tp1264
Rp1265
sS'loss_91.06316'
p1266
g233
(g237
S'\x99\xdc\xbdb\xee/\x96?'
p1267
tp1268
Rp1269
ssg40
(dp1270
g851
g233
(g237
S'\xf3\xdf@a\\/j?'
p1271
tp1272
Rp1273
sS'loss_36.01851_H4O2'
p1274
g233
(g237
S'\x9bA\xe8\x91\x0f6\xed?'
p1275
tp1276
Rp1277
ssg43
(dp1278
S'fragment_53.03888_C4H5'
p1279
g233
(g237
S'\x0f6Dq\xad\xe0\x9f?'
p1280
tp1281
Rp1282
sS'loss_69.05694'
p1283
g233
(g237
S'\x19\xfd\\\x91\xd6\x9bg?'
p1284
tp1285
Rp1286
sS'fragment_63.00673'
p1287
g233
(g237
S'\x18\xa5\xb4\xc1\xb7*|?'
p1288
tp1289
Rp1290
sS'fragment_93.06981'
p1291
g233
(g237
S'Iz\xfa\x1d\x14%\x92?'
p1292
tp1293
Rp1294
sS'loss_26.01543'
p1295
g233
(g237
S'\x07\xce\xee\xc2[\xed\x83?'
p1296
tp1297
Rp1298
sS'fragment_105.07019_C8H9'
p1299
g233
(g237
S'\x82\xc9\xa5\xa4\x9e\xd7\xe3?'
p1300
tp1301
Rp1302
sS'fragment_249.113'
p1303
g233
(g237
S'\xb1\xdc\x8a\xe5\xe0*S?'
p1304
tp1305
Rp1306
sS'fragment_371.2579'
p1307
g233
(g237
S'\xc4\x0b\xf9\xb3[\xd9\x86?'
p1308
tp1309
Rp1310
sS'fragment_267.12064'
p1311
g233
(g237
S'\xb1\xdc\x8a\xe5\xe0*S?'
p1312
tp1313
Rp1314
sS'fragment_103.05448'
p1315
g233
(g237
S'\x9b\xe7\xe1\xc3\xe0\xbd\x99?'
p1316
tp1317
Rp1318
sS'fragment_389.27167'
p1319
g233
(g237
S'K\xcb\x87Kz?\x9d?'
p1320
tp1321
Rp1322
sS'fragment_106.07325'
p1323
g233
(g237
S'\xfd\xf0\xeb\xee\xeaU}?'
p1324
tp1325
Rp1326
sS'fragment_79.05416_C6H7'
p1327
g233
(g237
S'r\xa0\xfe\xa9D\xcc\xb6?'
p1328
tp1329
Rp1330
sS'loss_43.04204'
p1331
g233
(g237
S"\xb8\xddh\xb2\x84'u?"
p1332
tp1333
Rp1334
sS'fragment_407.27374'
p1335
g233
(g237
S'1-\xa9,\xf5F\x8d?'
p1336
tp1337
Rp1338
ssg46
(dp1339
S'fragment_269.05774'
p1340
g233
(g237
S'\xbe\xfeL\xfdn\x15Z?'
p1341
tp1342
Rp1343
sS'fragment_241.06429'
p1344
g233
(g237
S'\xb8$f\xb6\xc5\xceU?'
p1345
tp1346
Rp1347
sS'fragment_204.05505'
p1348
g233
(g237
S'E\x13M4\xd1D\x93?'
p1349
tp1350
Rp1351
sS'fragment_168.06501_C8H10NO3'
p1352
g233
(g237
S':*|\x0e&P\x8b?'
p1353
tp1354
Rp1355
sS'loss_70.00557'
p1356
g233
(g237
S'\xc4\xd83D\x18\\^?'
p1357
tp1358
Rp1359
sS'fragment_219.09323'
p1360
g233
(g237
S'n\xa0\xe7\xaf^\xbbg?'
p1361
tp1362
Rp1363
sS'fragment_204.08795'
p1364
g233
(g237
S'\xcc\xa3\xed\xcc$\x9d\x98?'
p1365
tp1366
Rp1367
sS'fragment_108.04425'
p1368
g233
(g237
S'\xc4\xd83D\x18\\^?'
p1369
tp1370
Rp1371
sS'fragment_233.10881'
p1372
g233
(g237
S'n\xa0\xe7\xaf^\xbbg?'
p1373
tp1374
Rp1375
sS'loss_151.08423'
p1376
g233
(g237
S'\xb8$f\xb6\xc5\xceU?'
p1377
tp1378
Rp1379
sS'fragment_204.13519'
p1380
g233
(g237
S'\xf14\x89V\x8e\x16\x9c?'
p1381
tp1382
Rp1383
sS'loss_120.0897'
p1384
g233
(g237
S'S\xa5\x02\x17\xa9\x1b\x7f?'
p1385
tp1386
Rp1387
sS'loss_172.08459'
p1388
g233
(g237
S'eY\x8d\xc5`Qa?'
p1389
tp1390
Rp1391
sg970
g233
(g237
S'eY\x8d\xc5`Qa?'
p1392
tp1393
Rp1394
sS'loss_134.06886'
p1395
g233
(g237
S'k3t\x0c\n\x98e?'
p1396
tp1397
Rp1398
sS'fragment_209.1073'
p1399
g233
(g237
S'\xd1\xeeH\xc5\xfe\t~?'
p1400
tp1401
Rp1402
sS'fragment_269.12939'
p1403
g233
(g237
S'\xcf\x10apy\xc0\x9a?'
p1404
tp1405
Rp1406
sS'loss_106.0742'
p1407
g233
(g237
S'\xbf`\x94\xf0\x026q?'
p1408
tp1409
Rp1410
sg1170
g233
(g237
S'D\x84\xc1\xe5\x01kt?'
p1411
tp1412
Rp1413
sS'fragment_195.09146'
p1414
g233
(g237
S'\xc4\xd83D\x18\\^?'
p1415
tp1416
Rp1417
sS'fragment_184.04371'
p1418
g233
(g237
S'\xc2\xcd\x07\x94WYs?'
p1419
tp1420
Rp1421
sS'loss_54.03007'
p1422
g233
(g237
S'n\xa0\xe7\xaf^\xbbg?'
p1423
tp1424
Rp1425
sg713
g233
(g237
S'\xb8$f\xb6\xc5\xceU?'
p1426
tp1427
Rp1428
sS'fragment_207.09101'
p1429
g233
(g237
S'\xd1\xeeH\xc5\xfe\t~?'
p1430
tp1431
Rp1432
sS'loss_149.03218'
p1433
g233
(g237
S'\xb2J\x7fo\x1c\x88Q?'
p1434
tp1435
Rp1436
sS'loss_117.04227'
p1437
g233
(g237
S'q\r[S\xb3\xdei?'
p1438
tp1439
Rp1440
sS'loss_80.0474'
p1441
g233
(g237
S'\xea-^\xb4\xa9\x16\x80?'
p1442
tp1443
Rp1444
sS'loss_94.06277'
p1445
g233
(g237
S'\xf6\xe1+B\xfc\xa3\x88?'
p1446
tp1447
Rp1448
sS'loss_95.05803'
p1449
g233
(g237
S'n\xa0\xe7\xaf^\xbbg?'
p1450
tp1451
Rp1452
sS'fragment_80.04949'
p1453
g233
(g237
S'\xea-^\xb4\xa9\x16\x80?'
p1454
tp1455
Rp1456
sS'fragment_115.05435'
p1457
g233
(g237
S'\xbe\xfeL\xfdn\x15Z?'
p1458
tp1459
Rp1460
sS'loss_78.03166'
p1461
g233
(g237
S'\xf6\xe1+B\xfc\xa3\x88?'
p1462
tp1463
Rp1464
sS'fragment_144.0659'
p1465
g233
(g237
S'1pN\xdbVj\xaf?'
p1466
tp1467
Rp1468
sS'loss_121.07393'
p1469
g233
(g237
S'\xbe\xfeL\xfdn\x15Z?'
p1470
tp1471
Rp1472
sS'fragment_94.06475'
p1473
g233
(g237
S'u+r\xf0Q\x92\x87?'
p1474
tp1475
Rp1476
sS'loss_46.00649'
p1477
g233
(g237
S'q\r[S\xb3\xdei?'
p1478
tp1479
Rp1480
sS'fragment_206.08242'
p1481
g233
(g237
S'l\xe4\x17\x06T(\x81?'
p1482
tp1483
Rp1484
sg761
g233
(g237
S'\xc4\xd83D\x18\\^?'
p1485
tp1486
Rp1487
sS'loss_66.03193'
p1488
g233
(g237
S'\xb7\x84N\x12\xb9\x99\xa8?'
p1489
tp1490
Rp1491
sS'loss_151.04772'
p1492
g233
(g237
S'h\xc6\x00i\xb5tc?'
p1493
tp1494
Rp1495
sg372
g233
(g237
S'q\r[S\xb3\xdei?'
p1496
tp1497
Rp1498
sS'fragment_251.11652'
p1499
g233
(g237
S'eY\x8d\xc5`Qa?'
p1500
tp1501
Rp1502
sS'fragment_81.04439'
p1503
g233
(g237
S'\xc4\xd83D\x18\\^?'
p1504
tp1505
Rp1506
sg332
g233
(g237
S'\xc2\xcd\x07\x94WYs?'
p1507
tp1508
Rp1509
sS'fragment_259.07584'
p1510
g233
(g237
S'h\xc6\x00i\xb5tc?'
p1511
tp1512
Rp1513
sS'fragment_138.03762_C7H8NO2'
p1514
g233
(g237
S'tz\xce\xf6\x07\x02l?'
p1515
tp1516
Rp1517
sS'loss_133.07377'
p1518
g233
(g237
S'=\xaa\xda\x9eX$p?'
p1519
tp1520
Rp1521
sS'fragment_181.07496'
p1522
g233
(g237
S'w\xe7A\x9a\\%n?'
p1523
tp1524
Rp1525
sS'fragment_182.08449'
p1526
g233
(g237
S'\xf3t\xb8\x9e\xa7\x80\x86?'
p1527
tp1528
Rp1529
sS'fragment_138.05452_C7H8NO2'
p1530
g233
(g237
S'72;KC\xfe\xd2?'
p1531
tp1532
Rp1533
sS'fragment_204.05771'
p1534
g233
(g237
S'\xbe\xfeL\xfdn\x15Z?'
p1535
tp1536
Rp1537
sS'loss_92.04711'
p1538
g233
(g237
S'\xc4\xd83D\x18\\^?'
p1539
tp1540
Rp1541
sS'fragment_58.99523'
p1542
g233
(g237
S'n\xa0\xe7\xaf^\xbbg?'
p1543
tp1544
Rp1545
sS'fragment_140.07024_C7H10NO2'
p1546
g233
(g237
S'n\xa0\xe7\xaf^\xbbg?'
p1547
tp1548
Rp1549
sS'fragment_158.08046'
p1550
g233
(g237
S'\xc2\xcd\x07\x94WYs?'
p1551
tp1552
Rp1553
sS'loss_45.95732'
p1554
g233
(g237
S'\xc5:{7\xac|u?'
p1555
tp1556
Rp1557
sS'fragment_154.06588'
p1558
g233
(g237
S'eY\x8d\xc5`Qa?'
p1559
tp1560
Rp1561
sS'fragment_208.10091'
p1562
g233
(g237
S'\xc2\xcd\x07\x94WYs?'
p1563
tp1564
Rp1565
sS'fragment_158.12946'
p1566
g233
(g237
S'\xea-^\xb4\xa9\x16\x80?'
p1567
tp1568
Rp1569
sS'loss_87.03196'
p1570
g233
(g237
S'\xb2J\x7fo\x1c\x88Q?'
p1571
tp1572
Rp1573
sg300
g233
(g237
S'\xb8$f\xb6\xc5\xceU?'
p1574
tp1575
Rp1576
sS'fragment_125.07093'
p1577
g233
(g237
S'\xb8$f\xb6\xc5\xceU?'
p1578
tp1579
Rp1580
sS'fragment_287.06854'
p1581
g233
(g237
S'eY\x8d\xc5`Qa?'
p1582
tp1583
Rp1584
sS'fragment_83.01229'
p1585
g233
(g237
S'h\xc6\x00i\xb5tc?'
p1586
tp1587
Rp1588
sS'fragment_287.13715'
p1589
g233
(g237
S'\xf3t\xb8\x9e\xa7\x80\x86?'
p1590
tp1591
Rp1592
sS'loss_106.06374'
p1593
g233
(g237
S'w\xe7A\x9a\\%n?'
p1594
tp1595
Rp1596
sS'loss_133.03732'
p1597
g233
(g237
S'\xb0,h\xd2}\xd4\x83?'
p1598
tp1599
Rp1600
sS'fragment_186.07581_C8H12NO4'
p1601
g233
(g237
S',6\x7f8\xbaX\x98?'
p1602
tp1603
Rp1604
sS'loss_124.03724'
p1605
g233
(g237
S'M\xcb\x1b\xd0\xff\xd4z?'
p1606
tp1607
Rp1608
sS'fragment_134.08052'
p1609
g233
(g237
S'\xb8$f\xb6\xc5\xceU?'
p1610
tp1611
Rp1612
sS'fragment_112.07584'
p1613
g233
(g237
S'\xbe\xfeL\xfdn\x15Z?'
p1614
tp1615
Rp1616
sS'fragment_71.06057'
p1617
g233
(g237
S'G\xf14\x89V\x8ev?'
p1618
tp1619
Rp1620
sS'loss_107.05827'
p1621
g233
(g237
S'h\xc6\x00i\xb5tc?'
p1622
tp1623
Rp1624
sS'loss_46.05415'
p1625
g233
(g237
S'\xbe\xfeL\xfdn\x15Z?'
p1626
tp1627
Rp1628
sS'fragment_221.10941'
p1629
g233
(g237
S'\xb8$f\xb6\xc5\xceU?'
p1630
tp1631
Rp1632
sg942
g233
(g237
S'lqD\xbd\x82\xac\xab?'
p1633
tp1634
Rp1635
sS'fragment_186.1118_C8H12NO4'
p1636
g233
(g237
S'=\xaa\xda\x9eX$p?'
p1637
tp1638
Rp1639
sS'fragment_193.07567'
p1640
g233
(g237
S'\xf6\xe1+B\xfc\xa3\x88?'
p1641
tp1642
Rp1643
sS'fragment_55.05421'
p1644
g233
(g237
S'\xb2J\x7fo\x1c\x88Q?'
p1645
tp1646
Rp1647
sS'loss_136.03725'
p1648
g233
(g237
S'A\x17NB\xadGr?'
p1649
tp1650
Rp1651
ssg49
(dp1652
S'loss_175.08433'
p1653
g233
(g237
S'm\xca/\n\x0c\x8fp?'
p1654
tp1655
Rp1656
sS'fragment_67.04148'
p1657
g233
(g237
S'$"\xbeQ\xaf\xc2u?'
p1658
tp1659
Rp1660
sS'fragment_81.03334_C5H5O'
p1661
g233
(g237
S'\x0b\xae\x9cJ\x8d^\xdd?'
p1662
tp1663
Rp1664
sS'fragment_82.06499'
p1665
g233
(g237
S'\t\x85\x94Q\xa8\x0c\xa0?'
p1666
tp1667
Rp1668
sg256
g233
(g237
S'pr@\x93\xb4O\x93?'
p1669
tp1670
Rp1671
sS'loss_185.06735'
p1672
g233
(g237
S'\xa8\x02\x1d\x9d\xb2rh?'
p1673
tp1674
Rp1675
sS'fragment_194.11797'
p1676
g233
(g237
S'\x15`\xb2\xac@\xd0\x99?'
p1677
tp1678
Rp1679
sS'fragment_109.07636_C6H5O2'
p1680
g233
(g237
S'#=\xd1\xcct\xeak?'
p1681
tp1682
Rp1683
sS'loss_160.07329'
p1684
g233
(g237
S'H\xf6\xf6\xad\xdd(s?'
p1685
tp1686
Rp1687
sg887
g233
(g237
S'\xe7\x04\xe49\xce\x06t?'
p1688
tp1689
Rp1690
sg1453
g233
(g237
S'U\xb4\x00\xc9\x14n~?'
p1691
tp1692
Rp1693
sg1473
g233
(g237
S'\xaas\xb9!hQ\x88?'
p1694
tp1695
Rp1696
sS'loss_158.0579'
p1697
g233
(g237
S'L\x9e\x077\x86\xe9\x95?'
p1698
tp1699
Rp1700
sS'fragment_242.10395'
p1701
g233
(g237
S'y\x889%C\xd4{?'
p1702
tp1703
Rp1704
sS'fragment_53.03888_C4H5'
p1705
g233
(g237
S'v\xcd\x07P!\x12\xc1?'
p1706
tp1707
Rp1708
sS'loss_144.07831'
p1709
g233
(g237
S'#=\xd1\xcct\xeak?'
p1710
tp1711
Rp1712
sS'loss_173.06826'
p1713
g233
(g237
S'U\xb4\x00\xc9\x14n~?'
p1714
tp1715
Rp1716
sS'fragment_109.02882_C6H5O2'
p1717
g233
(g237
S's\x0b u\xf8\x87\xbb?'
p1718
tp1719
Rp1720
sS'fragment_260.12804'
p1721
g233
(g237
S'\xef\xe0\xb4K\x9a\x8e_?'
p1722
tp1723
Rp1724
sS'fragment_51.02338'
p1725
g233
(g237
S'\x07\xf7\xe3\x8c\x91\xafQ?'
p1726
tp1727
Rp1728
sS'fragment_176.1067'
p1729
g233
(g237
S'u\xa6\x00\x1c\xd8\x16\\?'
p1730
tp1731
Rp1732
sg1058
g233
(g237
S'm\xca/\n\x0c\x8fp?'
p1733
tp1734
Rp1735
sS'fragment_148.1118'
p1736
g233
(g237
S'\x86\x9f\x80\xc59\xeb\x8a?'
p1737
tp1738
Rp1739
sg408
g233
(g237
S'\xf3\xe1\x02Z\x02!\x96?'
p1740
tp1741
Rp1742
ssg52
(dp1743
S'fragment_199.09609'
p1744
g233
(g237
S"4\xee'h\xbc\xe3e?"
p1745
tp1746
Rp1747
sg705
g233
(g237
S'\x96\xb1\x17\xb6\xac\xc8\x97?'
p1748
tp1749
Rp1750
sS'fragment_239.14817'
p1751
g233
(g237
S'\xfa\xf3\xc7#\x8d\xb5\x85?'
p1752
tp1753
Rp1754
sS'fragment_283.17366'
p1755
g233
(g237
S'\xf1\x172_1\xeb\x89?'
p1756
tp1757
Rp1758
sS'fragment_195.12247'
p1759
g233
(g237
S'+\xa1\x88 \x03L\x80?'
p1760
tp1761
Rp1762
sS'fragment_133.08631_C6H13O3'
p1763
g233
(g237
S'jSu\xc1\x0f\xba\xca?'
p1764
tp1765
Rp1766
sS'fragment_111.04428_C6H7O2'
p1767
g233
(g237
S'\xd1\x9bA\x9d)\xcc\x9d?'
p1768
tp1769
Rp1770
sg662
g233
(g237
S'\xf9d\xd1\xa6\xea\x82o?'
p1771
tp1772
Rp1773
sS'fragment_175.09579'
p1774
g233
(g237
S"4\xee'h\xbc\xe3e?"
p1775
tp1776
Rp1777
sS'fragment_89.06006_C4H9O2'
p1778
g233
(g237
S'aD/.\x00\xdd\xdd?'
p1779
tp1780
Rp1781
sS'fragment_155.07011'
p1782
g233
(g237
S'\xa2u\xdc\xee\xfcR\x8c?'
p1783
tp1784
Rp1785
sS'loss_123.08947'
p1786
g233
(g237
S'\x988s\x04\xf6\xe5\x80?'
p1787
tp1788
Rp1789
sg970
g233
(g237
S'\xb9\x9c\x92:\xf2\xc4u?'
p1790
tp1791
Rp1792
sS'fragment_327.20145'
p1793
g233
(g237
S'\xd12\xd3H%\x14a?'
p1794
tp1795
Rp1796
sS'fragment_131.07078'
p1797
g233
(g237
S'@\xaaQr\xb3X]?'
p1798
tp1799
Rp1800
sS'fragment_243.12233'
p1801
g233
(g237
S'\xdd\xee\xfcR\x1c\x89X?'
p1802
tp1803
Rp1804
sS'fragment_113.0602'
p1805
g233
(g237
S'.\x10\x13\xe3@)r?'
p1806
tp1807
Rp1808
sg320
g233
(g237
S'I\x96\x1d\x94\xc1M\x83?'
p1809
tp1810
Rp1811
sS'fragment_151.09674'
p1812
g233
(g237
S"H\x07'\x17\x1f\x1bm?"
p1813
tp1814
Rp1815
sS'fragment_177.11278_C8H17O4'
p1816
g233
(g237
S'\x1f\xca\x7f\xd3c\x04\xa7?'
p1817
tp1818
Rp1819
ssg55
(dp1820
S'fragment_60.04477_C2H6NO'
p1821
g233
(g237
S'E%X5AZ\x8d?'
p1822
tp1823
Rp1824
sS'loss_73.05269'
p1825
g233
(g237
S"'\xff\xbe\xd8\x93\xa3`?"
p1826
tp1827
Rp1828
sS'loss_59.037_C2H5NO'
p1829
g233
(g237
S"\xe8\x01\xb5\xffm'\xe2?"
p1830
tp1831
Rp1832
sS'fragment_113.10699'
p1833
g233
(g237
S'\x9d\t\xe8%f\xabg?'
p1834
tp1835
Rp1836
sS'loss_113.08393'
p1837
g233
(g237
S'\x9d\t\xe8%f\xabg?'
p1838
tp1839
Rp1840
sS'loss_101.08393'
p1841
g233
(g237
S'\xb3 \x0c69\x95~?'
p1842
tp1843
Rp1844
sg1146
g233
(g237
S'\x04\xeea\xdb\xb5@\xa5?'
p1845
tp1846
Rp1847
sS'fragment_72.04466_C3H6NO'
p1848
g233
(g237
S'E\xff\x92b\xe9+\x97?'
p1849
tp1850
Rp1851
sS'fragment_425.1355'
p1852
g233
(g237
S'l\xe8\x16f\xc1R\x9d?'
p1853
tp1854
Rp1855
sS'fragment_131.11777'
p1856
g233
(g237
S'K\xa9/\x97\xbd\xe8\x9d?'
p1857
tp1858
Rp1859
sS'loss_118.07399'
p1860
g233
(g237
S' \x06\x85auSe?'
p1861
tp1862
Rp1863
sS'loss_75.06851'
p1864
g233
(g237
S'c\xe9+\x17\x837S?'
p1865
tp1866
Rp1867
sS'loss_74.04767'
p1868
g233
(g237
S'\\\xf0\xf1\x9fd\xe7W?'
p1869
tp1870
Rp1871
sS'loss_59.00065_C2H5NO'
p1872
g233
(g237
S'\t+a\xf9\xb5\x14\x9f?'
p1873
tp1874
Rp1875
sS'fragment_173.12806'
p1876
g233
(g237
S'\xba\x19F\xadW\xe5y?'
p1877
tp1878
Rp1879
sS'fragment_114.09123_C6H12NO'
p1880
g233
(g237
S'\n$&\x0e\xbf\xc2\xb8?'
p1881
tp1882
Rp1883
sS'loss_46.03368'
p1884
g233
(g237
S'U\xf7\xb7(F\x97\\?'
p1885
tp1886
Rp1887
sg1142
g233
(g237
S'\xd6\x13i_\x8d\xa2\x81?'
p1888
tp1889
Rp1890
ssg58
(dp1891
S'fragment_120.0804_C8H10N'
p1892
g233
(g237
S'\xc3\x03a\xee|m\xe0?'
p1893
tp1894
Rp1895
sS'loss_29.02613'
p1896
g233
(g237
S'\xe9\xcd\xb0\xcf\xc3\xefi?'
p1897
tp1898
Rp1899
sS'loss_109.0372'
p1900
g233
(g237
S'\x87Bp\xad\xe41T?'
p1901
tp1902
Rp1903
sS'fragment_107.04883'
p1904
g233
(g237
S"\xb0m\xae\x0b\x99'X?"
p1905
tp1906
Rp1907
sS'fragment_263.13811'
p1908
g233
(g237
S'\xe9\xcd\xb0\xcf\xc3\xefi?'
p1909
tp1910
Rp1911
sg709
g233
(g237
S'\x99;_\xdb\\\x17\x92?'
p1912
tp1913
Rp1914
sS'fragment_131.04941'
p1915
g233
(g237
S'\x87Bp\xad\xe41T?'
p1916
tp1917
Rp1918
sg1453
g233
(g237
S'\x87Bp\xad\xe41T?'
p1919
tp1920
Rp1921
sS'fragment_103.05448_C8H7'
p1922
g233
(g237
S'\xf3g\xffN\xf5\x8d\xc3?'
p1923
tp1924
Rp1925
sS'fragment_102.09089'
p1926
g233
(g237
S'\x87Bp\xad\xe41T?'
p1927
tp1928
Rp1929
sg324
g233
(g237
S"'\x05\xfe\xb11\xd9\x83?"
p1930
tp1931
Rp1932
sS'fragment_103.03968_C8H7'
p1933
g233
(g237
S"\xb0m\xae\x0b\x99'X?"
p1934
tp1935
Rp1936
sS'loss_99.06819'
p1937
g233
(g237
S'\xda\x98\xeciM\x1d\\?'
p1938
tp1939
Rp1940
sg1291
g233
(g237
S'E\xf9)\xdcH\xd0\x94?'
p1941
tp1942
Rp1943
sS'fragment_142.06139'
p1944
g233
(g237
S"\xb0m\xae\x0b\x99'X?"
p1945
tp1946
Rp1947
sS'fragment_166.08631'
p1948
g233
(g237
S'?\x99b\xc6\xee\xf2\xb1?'
p1949
tp1950
Rp1951
sS'fragment_91.05413_C7H7'
p1952
g233
(g237
S'\xe03bP\x92Q\x94?'
p1953
tp1954
Rp1955
sS'fragment_199.18129'
p1956
g233
(g237
S'\x87Bp\xad\xe41T?'
p1957
tp1958
Rp1959
sS'fragment_124.05026'
p1960
g233
(g237
S'H\xbdT\xa4J\xe3t?'
p1961
tp1962
Rp1963
sS'loss_45.99208'
p1964
g233
(g237
S'\x19Y\xb6C\xd2\xc2\xa8?'
p1965
tp1966
Rp1967
sS'fragment_69.06953'
p1968
g233
(g237
S'\x87Bp\xad\xe41T?'
p1969
tp1970
Rp1971
sS'fragment_186.09266'
p1972
g233
(g237
S'\x02b\x15\xe4\x80\t`?'
p1973
tp1974
Rp1975
sS'loss_113.04742'
p1976
g233
(g237
S'\x87Bp\xad\xe41T?'
p1977
tp1978
Rp1979
sS'loss_27.01101'
p1980
g233
(g237
S'\xc0\xa2rq\x0f\xfae?'
p1981
tp1982
Rp1983
sS'loss_17.0403'
p1984
g233
(g237
S'\xc0\xa2rq\x0f\xfae?'
p1985
tp1986
Rp1987
ssg61
(dp1988
S'fragment_112.11182'
p1989
g233
(g237
S'\xcfs8\x8b\x11R\x7f?'
p1990
tp1991
Rp1992
sS'loss_148.07328'
p1993
g233
(g237
S'\x02\xe6\x96\xdc\xc9\xb5v?'
p1994
tp1995
Rp1996
sg887
g233
(g237
S'\x9a"I\xad\xbc\x96c?'
p1997
tp1998
Rp1999
sS'loss_60.02094_C2H4O2'
p2000
g233
(g237
S'&EO\x83\x98\xb6\xe7?'
p2001
tp2002
Rp2003
sS'loss_149.06869'
p2004
g233
(g237
S'\xe8\xac\xe7\xb3\xed\x03{?'
p2005
tp2006
Rp2007
sS'fragment_172.13416'
p2008
g233
(g237
S'\x02\xe6\x96\xdc\xc9\xb5v?'
p2009
tp2010
Rp2011
sg304
g233
(g237
S'[\xb5\xfe\xb7\xd1\xeb\xaa?'
p2012
tp2013
Rp2014
sS'fragment_121.96667'
p2015
g233
(g237
S'\xd5P\x1a\xfb.{s?'
p2016
tp2017
Rp2018
sS'fragment_158.11806'
p2019
g233
(g237
S'\xb5"\xcf[~\x84\xaa?'
p2020
tp2021
Rp2022
ssg64
(dp2023
S'fragment_127.01561'
p2024
g233
(g237
S'\xb1b\x01\x90\x07\xf2\x93?'
p2025
tp2026
Rp2027
sS'fragment_173.02023'
p2028
g233
(g237
S'=\xb2\x8d\x17\x90\x80\x92?'
p2029
tp2030
Rp2031
sS'fragment_82.02903'
p2032
g233
(g237
S'D\x03#\xc7I\xb4b?'
p2033
tp2034
Rp2035
sS'fragment_261.03653'
p2036
g233
(g237
S'\xc5\xf9\xf7\xdd>&\x87?'
p2037
tp2038
Rp2039
sS'fragment_155.01045'
p2040
g233
(g237
S'\xd0\x9b"=\xb2\x8dW?'
p2041
tp2042
Rp2043
sS'fragment_165.09204'
p2044
g233
(g237
S'\rj.X\xfd+\\?'
p2045
tp2046
Rp2047
sS'loss_190.08406'
p2048
g233
(g237
S'\xd0\x9b"=\xb2\x8dW?'
p2049
tp2050
Rp2051
sS'loss_57.02093'
p2052
g233
(g237
S'\xac\x11l\xe0M\xbes?'
p2053
tp2054
Rp2055
sg1437
g233
(g237
S'\x93\xcd\x16"g\xefR?'
p2056
tp2057
Rp2058
sS'fragment_267.15803'
p2059
g233
(g237
S'D\x03#\xc7I\xb4b?'
p2060
tp2061
Rp2062
sS'fragment_98.98385_H4O4P'
p2063
g233
(g237
S'\x06\xa8\xc7\x1fw\x8d\xe7?'
p2064
tp2065
Rp2066
sS'fragment_173.09141'
p2067
g233
(g237
S'\xca\xf8\xf1ms\rv?'
p2068
tp2069
Rp2070
sS'fragment_249.14687'
p2071
g233
(g237
S'\rj.X\xfd+\\?'
p2072
tp2073
Rp2074
sS'loss_154.06285'
p2075
g233
(g237
S'\xb5\xa1F\xddv"~?'
p2076
tp2077
Rp2078
sS'fragment_116.99469'
p2079
g233
(g237
S'\x17\x1f\xaf\x89\x86\xaf\x83?'
p2080
tp2081
Rp2082
sg674
g233
(g237
S'Y\xec\xb44\x065w?'
p2083
tp2084
Rp2085
sS'fragment_139.03976'
p2086
g233
(g237
S'\x9f\xb8\xb4o\xba\xa1i?'
p2087
tp2088
Rp2089
sS'loss_56.02612'
p2090
g233
(g237
S'\xba\xf2\xdb\x8c0V\x9e?'
p2091
tp2092
Rp2093
sS'fragment_119.04991'
p2094
g233
(g237
S'\x93\xcd\x16"g\xefR?'
p2095
tp2096
Rp2097
sS'fragment_247.07855'
p2098
g233
(g237
S'\x1c\x1e\xa9\x19\xbb\x96r?'
p2099
tp2100
Rp2101
ssg67
(dp2102
S'fragment_252.10822'
p2103
g233
(g237
S'\xc6}\x8b\xd4X\x00z?'
p2104
tp2105
Rp2106
sS'loss_155.06934'
p2107
g233
(g237
S'\x0c\x0cS\xa4]\xe0R?'
p2108
tp2109
Rp2110
sS'fragment_75.05567'
p2111
g233
(g237
S'v\xe7\xe1A\xc0\x8ad?'
p2112
tp2113
Rp2114
sS'fragment_310.21521'
p2115
g233
(g237
S'|m\x0b\x14\xef\xfa]?'
p2116
tp2117
Rp2118
sS'fragment_82.05232'
p2119
g233
(g237
S'\x93,\xc7L\x8a\xbfp?'
p2120
tp2121
Rp2122
sS'loss_183.065'
p2123
g233
(g237
S'\xb4\xf7\xd5)\x83df?'
p2124
tp2125
Rp2126
sS'fragment_231.1431'
p2127
g233
(g237
S'\x0eM\xaf\x1c\x10st?'
p2128
tp2129
Rp2130
sS'fragment_143.11757'
p2131
g233
(g237
S'\xe2@\xdb\xa4\xa7\x9a\x91?'
p2132
tp2133
Rp2134
sS'loss_167.08599'
p2135
g233
(g237
S'M\x1e\x11X\xfa$\xa7?'
p2136
tp2137
Rp2138
sg1896
g233
(g237
S'\xfc\xc6\xf9q:\xd7`?'
p2139
tp2140
Rp2141
sS'loss_194.08592'
p2142
g233
(g237
S'K]\xa3\x04\xd3Lv?'
p2143
tp2144
Rp2145
sg1980
g233
(g237
S"\x9aq\xb7\\\xf0'\x97?"
p2146
tp2147
Rp2148
sS'fragment_308.17215'
p2149
g233
(g237
S'v\xe7\xe1A\xc0\x8ad?'
p2150
tp2151
Rp2152
sS'fragment_95.06076_C5H7N2'
p2153
g233
(g237
S'\x82,\xf5\x07\x10~\x89?'
p2154
tp2155
Rp2156
sS'fragment_259.13595'
p2157
g233
(g237
S'^\xdf-:\xb2\xb3\x80?'
p2158
tp2159
Rp2160
sS'fragment_75.05505'
p2161
g233
(g237
S'\x0c\x0cS\xa4]\xe0R?'
p2162
tp2163
Rp2164
sS'fragment_82.05298'
p2165
g233
(g237
S'\x93,\xc7L\x8a\xbfp?'
p2166
tp2167
Rp2168
sS'fragment_364.16351'
p2169
g233
(g237
S'l(\xb2\xe1\xcb\xf1k?'
p2170
tp2171
Rp2172
sS'loss_194.09798'
p2173
g233
(g237
S'\x9b\xef!"u\x8d\x82?'
p2174
tp2175
Rp2176
sS'fragment_231.11317'
p2177
g233
(g237
S'\x87,;t\xe3\x93V?'
p2178
tp2179
Rp2180
sS'fragment_93.04509_C5H5N2'
p2181
g233
(g237
S'\xf6E\xe0\xfan\xd1\xb1?'
p2182
tp2183
Rp2184
sS'fragment_110.07176_C5H8N3'
p2185
g233
(g237
S':*\x06\xdf6\x98\xd8?'
p2186
tp2187
Rp2188
sS'fragment_83.06041'
p2189
g233
(g237
S'\xdd\x84Z\xf6\xf9\xa1\xbc?'
p2190
tp2191
Rp2192
sS'fragment_156.07684_C6H10N3O2'
p2193
g233
(g237
S'\x8a.\x05@\xbd\xfe\xa8?'
p2194
tp2195
Rp2196
sS'fragment_146.08111'
p2197
g233
(g237
S'|m\x0b\x14\xef\xfa]?'
p2198
tp2199
Rp2200
sS'fragment_277.15149'
p2201
g233
(g237
S'\x93,\xc7L\x8a\xbfp?'
p2202
tp2203
Rp2204
sS'loss_54.02177'
p2205
g233
(g237
S'N\xdb0\x80A=\x80?'
p2206
tp2207
Rp2208
sS'fragment_290.161'
p2209
g233
(g237
S'\xb4\xf7\xd5)\x83df?'
p2210
tp2211
Rp2212
sg922
g233
(g237
S"\x9aq\xb7\\\xf0'\x97?"
p2213
tp2214
Rp2215
sS'fragment_253.09062'
p2216
g233
(g237
S'\x87,;t\xe3\x93V?'
p2217
tp2218
Rp2219
sS'fragment_363.17581'
p2220
g233
(g237
S"\x9aq\xb7\\\xf0'\x97?"
p2221
tp2222
Rp2223
sS'fragment_81.04501'
p2224
g233
(g237
S'\xda\xbe\xdcGo_\x91?'
p2225
tp2226
Rp2227
sS'loss_191.06155'
p2228
g233
(g237
S'\xa82\xb1\x88\xbe+\xa2?'
p2229
tp2230
Rp2231
sg496
g233
(g237
S'\x87,;t\xe3\x93V?'
p2232
tp2233
Rp2234
ssg70
(dp2235
S'fragment_113.03405'
p2236
g233
(g237
S'\x18\x8cu\x95\x02\x7f\x93?'
p2237
tp2238
Rp2239
sS'fragment_154.1346'
p2240
g233
(g237
S'\xbfa\x1b\x10\xa0\xd6\x94?'
p2241
tp2242
Rp2243
sS'fragment_96.06827'
p2244
g233
(g237
S'\xef\xd2:\xc3^\xd8\x80?'
p2245
tp2246
Rp2247
sS'fragment_117.05474'
p2248
g233
(g237
S'\x1b\xe8\xe7\x05\x90,\x80?'
p2249
tp2250
Rp2251
sS'fragment_111.05547'
p2252
g233
(g237
S'\xb1|l\xdbI\x03V?'
p2253
tp2254
Rp2255
sS'fragment_67.04201'
p2256
g233
(g237
S'L\xd3\x03\xc6\xbfa[?'
p2257
tp2258
Rp2259
sS'fragment_69.04506'
p2260
g233
(g237
S'\x16&\xd5\xf0\xd3\xa4P?'
p2261
tp2262
Rp2263
sg662
g233
(g237
S'L\xd3\x03\xc6\xbfa[?'
p2264
tp2265
Rp2266
sS'fragment_141.06607'
p2267
g233
(g237
S'\x8e\xb8\x94pyQ\xa4?'
p2268
tp2269
Rp2270
sS'fragment_198.12685'
p2271
g233
(g237
S'\x9by8!\xaa\xfaz?'
p2272
tp2273
Rp2274
sS'fragment_162.09141'
p2275
g233
(g237
S'\x16&\xd5\xf0\xd3\xa4P?'
p2276
tp2277
Rp2278
sS'fragment_68.04977_C4H6N'
p2279
g233
(g237
S'\x07\xaf \xfaj\xbc\xb5?'
p2280
tp2281
Rp2282
sS'fragment_113.07058'
p2283
g233
(g237
S'\x12\xd9\xa7N8:\x9d?'
p2284
tp2285
Rp2286
sS'fragment_95.06076_C5H7N2'
p2287
g233
(g237
S'\x9ca/l\x08\x19\xde?'
p2288
tp2289
Rp2290
sS'fragment_96.00841'
p2291
g233
(g237
S'\xe4S,37\xdf\x84?'
p2292
tp2293
Rp2294
sS'fragment_113.03509'
p2295
g233
(g237
S'\xb1|l\xdbI\x03V?'
p2296
tp2297
Rp2298
sS'loss_44.99797'
p2299
g233
(g237
S'\xb1wUA\xf9\xecr?'
p2300
tp2301
Rp2302
sS'loss_77.08387'
p2303
g233
(g237
S'\xf4\xa3\x92\xa6\x0c\xa3y?'
p2304
tp2305
Rp2306
sS'loss_129.09007'
p2307
g233
(g237
S'\xb1wUA\xf9\xecr?'
p2308
tp2309
Rp2310
sg693
g233
(g237
S'\x8f\xeb\xe4\xc2\x90\xbee?'
p2311
tp2312
Rp2313
sS'loss_59.01322'
p2314
g233
(g237
S'4V\xd3\xfe\xae%\x91?'
p2315
tp2316
Rp2317
sS'fragment_141.11352'
p2318
g233
(g237
S'XM\xfb\xbb\x96Dt?'
p2319
tp2320
Rp2321
sg1937
g233
(g237
S'\xf4\x94M\xd8\x1a``?'
p2322
tp2323
Rp2324
sS'loss_138.0316'
p2325
g233
(g237
S'\xc2\xbd\x8d\x80-\x84\x81?'
p2326
tp2327
Rp2328
sS'fragment_121.02828'
p2329
g233
(g237
S'\xd8\xd4\x1d\xa3\x0f\xe6\x88?'
p2330
tp2331
Rp2332
sg791
g233
(g237
S'B@\x99\xcdU\x0fc?'
p2333
tp2334
Rp2335
sS'fragment_198.1113'
p2336
g233
(g237
S'\xb1|l\xdbI\x03V?'
p2337
tp2338
Rp2339
sS'loss_87.06839'
p2340
g233
(g237
S'L\xd3\x03\xc6\xbfa[?'
p2341
tp2342
Rp2343
sg2119
g233
(g237
S'\x1b\x01[\x08#\x9c\x8f?'
p2344
tp2345
Rp2346
sS'fragment_112.08704'
p2347
g233
(g237
S'L\xd3\x03\xc6\xbfa[?'
p2348
tp2349
Rp2350
sS'fragment_181.08648'
p2351
g233
(g237
S'\xc2\xbd\x8d\x80-\x84\x81?'
p2352
tp2353
Rp2354
sg613
g233
(g237
S'\xcdU\x0f\x13\xe8\xec\x8c?'
p2355
tp2356
Rp2357
sS'fragment_68.99719_C4H6N'
p2358
g233
(g237
S'\xb1|l\xdbI\x03V?'
p2359
tp2360
Rp2361
sS'loss_129.07871'
p2362
g233
(g237
S'c\xcc\tL\xbe=p?'
p2363
tp2364
Rp2365
sS'fragment_163.07638'
p2366
g233
(g237
S'\x87\xcd_=G\x89\x99?'
p2367
tp2368
Rp2369
ssg73
(dp2370
S'loss_102.08728'
p2371
g233
(g237
S'\xfbL\x00r\xc9Yj?'
p2372
tp2373
Rp2374
sg408
g233
(g237
S'\x0e\x89\xb4\xe5\xdf`\x93?'
p2375
tp2376
Rp2377
sS'loss_71.01347'
p2378
g233
(g237
S'\xbfA|\xf084]?'
p2379
tp2380
Rp2381
sS'fragment_61.02854'
p2382
g233
(g237
S'\x0e\xd8u\xe2\xff\xf4\xb1?'
p2383
tp2384
Rp2385
sg784
g233
(g237
S'\x8f\xf5q\xc51\xde\x93?'
p2386
tp2387
Rp2388
sg791
g233
(g237
S'\xe9\x84)v\xab\x84b?'
p2389
tp2390
Rp2391
sS'fragment_91.03925'
p2392
g233
(g237
S"'\x86\xf5\xc3N\xaa\x96?"
p2393
tp2394
Rp2395
sS'loss_92.0663'
p2396
g233
(g237
S'\x8e u\xf3\xfe\x9bW?'
p2397
tp2398
Rp2399
sg388
g233
(g237
S'\x8e u\xf3\xfe\x9bW?'
p2400
tp2401
Rp2402
sS'loss_64.072'
p2403
g233
(g237
S'\x11BEuV2d?'
p2404
tp2405
Rp2406
sS'fragment_127.03868_C6H7O3'
p2407
g233
(g237
S'\\*q$\x92\xc1\x95?'
p2408
tp2409
Rp2410
sg674
g233
(g237
S'\xc0\xf4\xcf\x1b\x06\xf1\xa6?'
p2411
tp2412
Rp2413
sS'fragment_97.02839_C5H5O2'
p2414
g233
(g237
S'TB\t\xc8(\x85\xb6?'
p2415
tp2416
Rp2417
sS'fragment_85.02832_C4H5O2'
p2418
g233
(g237
S'g\xd7\xe1\xc4\xa6\x1a\xe2?'
p2419
tp2420
Rp2421
sS'fragment_69.03368_C4H4O'
p2422
g233
(g237
S'C\xd4\xb6\x15\x16\xe4\xba?'
p2423
tp2424
Rp2425
ssg76
(dp2426
S'fragment_95.04322_C4H3N2O'
p2427
g233
(g237
S'\xa8\x0cx\x9b\xbd<r?'
p2428
tp2429
Rp2430
sS'loss_133.04527'
p2431
g233
(g237
S'.j\xf3\xfa\xe6\xdb\xa2?'
p2432
tp2433
Rp2434
sg1665
g233
(g237
S'\x9e\x19\xbc@\xe1\xb7X?'
p2435
tp2436
Rp2437
sg658
g233
(g237
S'F\xd1{\x1188\x8e?'
p2438
tp2439
Rp2440
sg2260
g233
(g237
S'9\xc1\xcc\x87~=\x90?'
p2441
tp2442
Rp2443
sS'fragment_113.05456'
p2444
g233
(g237
S'\xc0No\x7f\xa1\xad\xc0?'
p2445
tp2446
Rp2447
sS'fragment_70.04804'
p2448
g233
(g237
S'8NJ\xeen@u?'
p2449
tp2450
Rp2451
sS'fragment_96.02703'
p2452
g233
(g237
S'\xca\xd9>\xa6\xfa\x1a\xa2?'
p2453
tp2454
Rp2455
sS'loss_172.01297'
p2456
g233
(g237
S'\xa8\x0cx\x9b\xbd<r?'
p2457
tp2458
Rp2459
sS'fragment_120.04414'
p2460
g233
(g237
S'0\x96K\x91\x18rn?'
p2461
tp2462
Rp2463
sS'fragment_95.02389_C4H3N2O'
p2464
g233
(g237
S'\x8f6<\xed$\x1e\xb0?'
p2465
tp2466
Rp2467
sS'loss_106.04574'
p2468
g233
(g237
S'~\x96\x17\x9b~\xb0R?'
p2469
tp2470
Rp2471
sS'loss_43.00571'
p2472
g233
(g237
S'\xf9\x9c\xb9m\x10\xee\x85?'
p2473
tp2474
Rp2475
sS'loss_163.04782'
p2476
g233
(g237
S'~\x96\x17\x9b~\xb0R?'
p2477
tp2478
Rp2479
sS'loss_78.05076'
p2480
g233
(g237
S'\x80\xd1\xd4\x98\x04ge?'
p2481
tp2482
Rp2483
sS'fragment_179.04414'
p2484
g233
(g237
S'\x92\xb0\x85\xea\xf8\xc5y?'
p2485
tp2486
Rp2487
sS'fragment_139.05068'
p2488
g233
(g237
S'\xef\x8f\x02FScb?'
p2489
tp2490
Rp2491
sS'fragment_54.03418'
p2492
g233
(g237
S'8NJ\xeen@u?'
p2493
tp2494
Rp2495
sS'fragment_125.03493'
p2496
g233
(g237
S'\xfbJ\xf9\x04\xa6\xa1\x93?'
p2497
tp2498
Rp2499
sg863
g233
(g237
S'\x10\x13\xa7\xeb\xb5jh?'
p2500
tp2501
Rp2502
sg1453
g233
(g237
S'\x80\xd1\xd4\x98\x04ge?'
p2503
tp2504
Rp2505
sS'fragment_113.04771'
p2506
g233
(g237
S'\x7f^R\xff\xf4i\x9a?'
p2507
tp2508
Rp2509
sS'loss_145.05784'
p2510
g233
(g237
S'\xea\x12\xc1\xe6\x82K~?'
p2511
tp2512
Rp2513
sS'loss_150.07242'
p2514
g233
(g237
S'Z\xd1\xee\x93\xd1G{?'
p2515
tp2516
Rp2517
sS'fragment_155.04439'
p2518
g233
(g237
S'\x95\x0c\x05\x19$-\x85?'
p2519
tp2520
Rp2521
sS'fragment_148.03974'
p2522
g233
(g237
S'\xef\x8f\x02FScb?'
p2523
tp2524
Rp2525
sg316
g233
(g237
S'8NJ\xeen@u?'
p2526
tp2527
Rp2528
sS'fragment_68.01311'
p2529
g233
(g237
S'\x10\x13\xa7\xeb\xb5jh?'
p2530
tp2531
Rp2532
sS'loss_149.03218_C5H11NO4'
p2533
g233
(g237
S'\xbe\x9c`\xe6C\xbf^?'
p2534
tp2535
Rp2536
sS'fragment_94.04051'
p2537
g233
(g237
S'\x01o\xb3\x97G\xc2v?'
p2538
tp2539
Rp2540
sg404
g233
(g237
S'\xbe\x9c`\xe6C\xbf^?'
p2541
tp2542
Rp2543
sS'loss_54.03129'
p2544
g233
(g237
S'Z\xd1\xee\x93\xd1G{?'
p2545
tp2546
Rp2547
sS'fragment_92.04949'
p2548
g233
(g237
S'\xa8\x0cx\x9b\xbd<r?'
p2549
tp2550
Rp2551
sS'fragment_167.04483'
p2552
g233
(g237
S'8NJ\xeen@u?'
p2553
tp2554
Rp2555
sS'fragment_191.04568'
p2556
g233
(g237
S'F\xd1{\x1188\x8e?'
p2557
tp2558
Rp2559
sS'loss_150.05243'
p2560
g233
(g237
S'8NJ\xeen@u?'
p2561
tp2562
Rp2563
sS'fragment_209.05505'
p2564
g233
(g237
S'~\xb0\x12h_\xb6\x8c?'
p2565
tp2566
Rp2567
sg831
g233
(g237
S'\x92\xb0\x85\xea\xf8\xc5y?'
p2568
tp2569
Rp2570
sS'fragment_163.05064'
p2571
g233
(g237
S'\xa8\x0cx\x9b\xbd<r?'
p2572
tp2573
Rp2574
sS'fragment_52.01845'
p2575
g233
(g237
S'\x9e\x19\xbc@\xe1\xb7X?'
p2576
tp2577
Rp2578
sS'fragment_151.05089'
p2579
g233
(g237
S'~\x96\x17\x9b~\xb0R?'
p2580
tp2581
Rp2582
sS'loss_132.02912_C5H8O4'
p2583
g233
(g237
S'8NJ\xeen@u?'
p2584
tp2585
Rp2586
sS'loss_145.03713'
p2587
g233
(g237
S'\xb23*\x90[\xcd\x7f?'
p2588
tp2589
Rp2590
sS'loss_44.00888'
p2591
g233
(g237
S'\x9e\x19\xbc@\xe1\xb7X?'
p2592
tp2593
Rp2594
sS'loss_165.04598'
p2595
g233
(g237
S'\x80\xd1\xd4\x98\x04ge?'
p2596
tp2597
Rp2598
sg2032
g233
(g237
S'\xef\x8f\x02FScb?'
p2599
tp2600
Rp2601
sS'loss_137.03287'
p2602
g233
(g237
S'\x9e\x19\xbc@\xe1\xb7X?'
p2603
tp2604
Rp2605
sS'loss_44.03726'
p2606
g233
(g237
S'\x10\x13\xa7\xeb\xb5jh?'
p2607
tp2608
Rp2609
sS'loss_161.05123'
p2610
g233
(g237
S'\xef\x8f\x02FScb?'
p2611
tp2612
Rp2613
sS'fragment_73.08418'
p2614
g233
(g237
S'\xea\x12\xc1\xe6\x82K~?'
p2615
tp2616
Rp2617
sS'loss_190.05885'
p2618
g233
(g237
S'\xef\x8f\x02FScb?'
p2619
tp2620
Rp2621
sS'loss_173.01622'
p2622
g233
(g237
S'0\x96K\x91\x18rn?'
p2623
tp2624
Rp2625
sS'fragment_67.02909'
p2626
g233
(g237
S'\xef\x8f\x02FScb?'
p2627
tp2628
Rp2629
sS'fragment_112.05105_C4H6N3O'
p2630
g233
(g237
S'\xa0\xa2j\xa5\t\x80\xd1?'
p2631
tp2632
Rp2633
sS'fragment_96.02096'
p2634
g233
(g237
S'\xc9\x8f\x1cA Dx?'
p2635
tp2636
Rp2637
sS'loss_161.01462'
p2638
g233
(g237
S'~\x96\x17\x9b~\xb0R?'
p2639
tp2640
Rp2641
sg408
g233
(g237
S'\xa0Ty>gnk?'
p2642
tp2643
Rp2644
sg2228
g233
(g237
S'\x80\xd1\xd4\x98\x04ge?'
p2645
tp2646
Rp2647
sS'fragment_94.0397'
p2648
g233
(g237
S'\x9e\x19\xbc@\xe1\xb7X?'
p2649
tp2650
Rp2651
ssg79
(dp2652
g1621
g233
(g237
S'\xdd\x8c\x8c\x80H0^?'
p2653
tp2654
Rp2655
sS'loss_165.07584'
p2656
g233
(g237
S'\xc4b^\x81\x9b\x91a?'
p2657
tp2658
Rp2659
sS'loss_160.03691'
p2660
g233
(g237
S'\xac\xbaJ \x18\xa8\xa3?'
p2661
tp2662
Rp2663
sS'loss_177.0635'
p2664
g233
(g237
S'\r\x14p\xc9\x87\x94|?'
p2665
tp2666
Rp2667
sS'fragment_127.04953'
p2668
g233
(g237
S'2T\\\xfeY=Y?'
p2669
tp2670
Rp2671
sS'fragment_85.03954'
p2672
g233
(g237
S'n\x9b\x8e\x03\x8a\x84f?'
p2673
tp2674
Rp2675
sS'fragment_144.99346'
p2676
g233
(g237
S'\x19\xd4\xbe\x85xwk?'
p2677
tp2678
Rp2679
sS'fragment_234.07753'
p2680
g233
(g237
S'\x19\xd4\xbe\x85xwk?'
p2681
tp2682
Rp2683
sS'fragment_102.06629'
p2684
g233
(g237
S'\xb8\x15\xe4\xc4=\xf6\x9e?'
p2685
tp2686
Rp2687
sS'fragment_74.07118'
p2688
g233
(g237
S'1m\x8cHe\xf3\x86?'
p2689
tp2690
Rp2691
sS'fragment_234.10788'
p2692
g233
(g237
S'\xdd\x8c\x8c\x80H0^?'
p2693
tp2694
Rp2695
sg2004
g233
(g237
S'\\5\x16\xc4Q1\xa3?'
p2696
tp2697
Rp2698
sS'loss_170.06884'
p2699
g233
(g237
S'\xc4\xb7\xa6D\x01\xfeh?'
p2700
tp2701
Rp2702
sS'loss_198.03757'
p2703
g233
(g237
S'\x19\x7fv\xc2\x12\x0bd?'
p2704
tp2705
Rp2706
sS'fragment_71.01303'
p2707
g233
(g237
S'\x19\x7fv\xc2\x12\x0bd?'
p2708
tp2709
Rp2710
sS'fragment_268.1059'
p2711
g233
(g237
S'\x88\x1b,|kJT?'
p2712
tp2713
Rp2714
sg408
g233
(g237
S'q-\x16\xf6\x18b\x81?'
p2715
tp2716
Rp2717
sS'loss_132.04207_C5H8O4'
p2718
g233
(g237
S'\xda\xa7\xa3\x9a\t\xdb\xe5?'
p2719
tp2720
Rp2721
sS'loss_131.05794'
p2722
g233
(g237
S'\x0e\x88k\x7f\xe9\x96\x92?'
p2723
tp2724
Rp2725
sg867
g233
(g237
S'\xc4b^\x81\x9b\x91a?'
p2726
tp2727
Rp2728
ssg82
(dp2729
S'fragment_110.07074'
p2730
g233
(g237
S'[\x171\xcc\x03\xa6r?'
p2731
tp2732
Rp2733
sS'fragment_278.06424'
p2734
g233
(g237
S'\xcc\xc4,\xf4\x11\xe3m?'
p2735
tp2736
Rp2737
sS'fragment_476.14127'
p2738
g233
(g237
S'\xf6\x1c\xf4\xed\xe6\xe7\x9e?'
p2739
tp2740
Rp2741
sS'loss_64.03528'
p2742
g233
(g237
S'2\xbfi\xd2.\xa1\x91?'
p2743
tp2744
Rp2745
sS'fragment_71.06872'
p2746
g233
(g237
S'd\x13(D7\xdc\xe1?'
p2747
tp2748
Rp2749
sS'loss_162.07274'
p2750
g233
(g237
S'\xb8\xbb\x80+\x12a\xa0?'
p2751
tp2752
Rp2753
sS'fragment_458.12289'
p2754
g233
(g237
S'bs\xc2\xd4\x86\x0e\x85?'
p2755
tp2756
Rp2757
sS'fragment_71.06244'
p2758
g233
(g237
S'~\xa1\xc5\x12\xc0jk?'
p2759
tp2760
Rp2761
sS'fragment_71.06302'
p2762
g233
(g237
S'u\x97\xeb\x85\xfb\xcd\x97?'
p2763
tp2764
Rp2765
sS'loss_116.06671'
p2766
g233
(g237
S'\xeb\x1d"\xb2\xab\x02\xa5?'
p2767
tp2768
Rp2769
sS'fragment_117.07404'
p2770
g233
(g237
S'HM\xfe!j\xb3\xb6?'
p2771
tp2772
Rp2773
sS'loss_45.98608'
p2774
g233
(g237
S'\x9a\xeaE9n\x04\xa7?'
p2775
tp2776
Rp2777
sg1964
g233
(g237
S'\x937\x90n\xca\x01d?'
p2778
tp2779
Rp2780
ssg85
(dp2781
S'loss_122.02145'
p2782
g233
(g237
S'\xf2\x14`\x7f\xed\x18c?'
p2783
tp2784
Rp2785
sS'fragment_158.08228'
p2786
g233
(g237
S'g|\x1b.\xb7\xb7`?'
p2787
tp2788
Rp2789
sS'fragment_194.08466'
p2790
g233
(g237
S'\x8a\xa2l\xc2\x04Pa?'
p2791
tp2792
Rp2793
sS'loss_18.00923_H2O'
p2794
g233
(g237
S'\x1c\xef#\x1c)#\xee?'
p2795
tp2796
Rp2797
sg1676
g233
(g237
S'\xea\xe2\xc6?0\x1bY?'
p2798
tp2799
Rp2800
sg1605
g233
(g237
S'\xea\xe2\xc6?0\x1bY?'
p2801
tp2802
Rp2803
sS'fragment_176.09136'
p2804
g233
(g237
S'0\x93\xca\xdd\x90\xf3\x8e?'
p2805
tp2806
Rp2807
ssg88
(dp2808
S'fragment_86.06016'
p2809
g233
(g237
S'}w\x8a\x7f\xce\xf5\xeb?'
p2810
tp2811
Rp2812
sg922
g233
(g237
S'p\xdc\x8d2\xccpW?'
p2813
tp2814
Rp2815
sS'fragment_57.05774'
p2816
g233
(g237
S'\xfa\xb3\xe7\x9en\xd6P?'
p2817
tp2818
Rp2819
sS'fragment_69.03368_C4H5O'
p2820
g233
(g237
S'\x10\x00\xbd\x159\x8f\x9e?'
p2821
tp2822
Rp2823
ssg91
(dp2824
S'fragment_128.06202'
p2825
g233
(g237
S'\xf5\xca\n\xb0V\x16\xa0?'
p2826
tp2827
Rp2828
sg316
g233
(g237
S'\xe6Ud\xfc\x99X\x80?'
p2829
tp2830
Rp2831
sS'fragment_91.05413_C7H7'
p2832
g233
(g237
S'B\xd7\x1a\xef\ny\xec?'
p2833
tp2834
Rp2835
ssg94
(dp2836
S'fragment_81.03334_C5H5O'
p2837
g233
(g237
S'B\xe2jNC1\xaa?'
p2838
tp2839
Rp2840
sS'fragment_265.15335'
p2841
g233
(g237
S'\x1bX\x00/\\\x9b\x98?'
p2842
tp2843
Rp2844
sS'loss_198.07403_C6H14O7'
p2845
g233
(g237
S'\xdeB\xd0\xac\xc3\xac\xca?'
p2846
tp2847
Rp2848
sS'loss_180.06318_C6H12O6'
p2849
g233
(g237
S'\xd9\x0e~d\x9c%\xe1?'
p2850
tp2851
Rp2852
sg686
g233
(g237
S'\x99\xf4W5u\xd0p?'
p2853
tp2854
Rp2855
sS'fragment_69.03368_C4H5O'
p2856
g233
(g237
S'3\xd4|s\xe5C\xad?'
p2857
tp2858
Rp2859
sg709
g233
(g237
S'0hoJ\xda\x98}?'
p2860
tp2861
Rp2862
ssg97
(dp2863
S'fragment_57.03408_C3H5O'
p2864
g233
(g237
S'W\xde\xf5h\xccf\xa1?'
p2865
tp2866
Rp2867
sg831
g233
(g237
S'\x03\x19\x1e\xd6\x836v?'
p2868
tp2869
Rp2870
sS'fragment_192.1124'
p2871
g233
(g237
S'\xa1|\x1c\xa0\x99\xe8w?'
p2872
tp2873
Rp2874
sS'loss_46.00755'
p2875
g233
(g237
S'G\xd3\xb8\xc8\xa7\x06U?'
p2876
tp2877
Rp2878
sS'fragment_134.09685'
p2879
g233
(g237
S'\xdfC\x194\xc5L{?'
p2880
tp2881
Rp2882
sS'fragment_97.07643'
p2883
g233
(g237
S'4.\xf2\xa9A\x05\x9c?'
p2884
tp2885
Rp2886
sg1078
g233
(g237
S'!\x86\xfc}<\x9b\x8e?'
p2887
tp2888
Rp2889
sS'fragment_178.09849'
p2890
g233
(g237
S'\x97\xca\xf3\xdf+S\x9a?'
p2891
tp2892
Rp2893
sS'loss_74.02423'
p2894
g233
(g237
S'\x97\x86O4\x02\x14h?'
p2895
tp2896
Rp2897
sg2275
g233
(g237
S'\xd4ML\xc8-xk?'
p2898
tp2899
Rp2900
sS'loss_185.08026'
p2901
g233
(g237
S'\xc6Q!BX\xd2r?'
p2902
tp2903
Rp2904
sS'loss_74.0361'
p2905
g233
(g237
S'\x97\x86O4\x02\x14h?'
p2906
tp2907
Rp2908
sg1684
g233
(g237
S'\xd4ML\xc8-xk?'
p2909
tp2910
Rp2911
sS'loss_60.00998'
p2912
g233
(g237
S'\x97\x86O4\x02\x14h?'
p2913
tp2914
Rp2915
sS'fragment_107.07299'
p2916
g233
(g237
S'\xc1a\xb2\xf0\xfe\xce[?'
p2917
tp2918
Rp2919
sS'fragment_154.097'
p2920
g233
(g237
S'd\xb5\x1f\x0cn\x84t?'
p2921
tp2922
Rp2923
sg540
g233
(g237
S'G\xd3\xb8\xc8\xa7\x06U?'
p2924
tp2925
Rp2926
sS'loss_78.04263'
p2927
g233
(g237
S'\xc1a\xb2\xf0\xfe\xce[?'
p2928
tp2929
Rp2930
sS'loss_48.02104'
p2931
g233
(g237
S'\x03\x19\x1e\xd6\x836v?'
p2932
tp2933
Rp2934
sS'fragment_240.13519'
p2935
g233
(g237
S'\xdd\r/\xe6\xc64\xb5?'
p2936
tp2937
Rp2938
sS'loss_114.07908'
p2939
g233
(g237
S'\x1d\xf8U\x0c\xabKa?'
p2940
tp2941
Rp2942
sS'loss_92.05837'
p2943
g233
(g237
S'\x11\x15I\\Y\xdcn?'
p2944
tp2945
Rp2946
sg304
g233
(g237
S'\xc1a\xb2\xf0\xfe\xce[?'
p2947
tp2948
Rp2949
sg1503
g233
(g237
S'G\xd3\xb8\xc8\xa7\x06U?'
p2950
tp2951
Rp2952
sS'loss_172.07346'
p2953
g233
(g237
S'Z\xbfR\xa0\xd6\xafd?'
p2954
tp2955
Rp2956
sS'loss_143.05783'
p2957
g233
(g237
S'\'\xee"xB q?'
p2958
tp2959
Rp2960
sS'fragment_194.11551'
p2961
g233
(g237
S'Z\xbfR\xa0\xd6\xafd?'
p2962
tp2963
Rp2964
sS'loss_142.06266'
p2965
g233
(g237
S'\xc1a\xb2\xf0\xfe\xce[?'
p2966
tp2967
Rp2968
sg1729
g233
(g237
S'\xa1|\x1c\xa0\x99\xe8w?'
p2969
tp2970
Rp2971
sg2699
g233
(g237
S'\xd4ML\xc8-xk?'
p2972
tp2973
Rp2974
sS'fragment_106.06503'
p2975
g233
(g237
S'\'\xee"xB q?'
p2976
tp2977
Rp2978
sS'fragment_148.07572'
p2979
g233
(g237
S'\x1c\x0b\x16\xc8\xf0\xb0~?'
p2980
tp2981
Rp2982
sg328
g233
(g237
S'\x97\x86O4\x02\x14h?'
p2983
tp2984
Rp2985
sS'fragment_152.08268'
p2986
g233
(g237
S'\xc1a\xb2\xf0\xfe\xce[?'
p2987
tp2988
Rp2989
sS'fragment_166.09863'
p2990
g233
(g237
S'\xa1|\x1c\xa0\x99\xe8w?'
p2991
tp2992
Rp2993
sS'loss_160.08466'
p2994
g233
(g237
S'\x97\x86O4\x02\x14h?'
p2995
tp2996
Rp2997
sg1395
g233
(g237
S'\x1d\xf8U\x0c\xabKa?'
p2998
tp2999
Rp3000
sS'fragment_179.10584'
p3001
g233
(g237
S'\xd4ML\xc8-xk?'
p3002
tp3003
Rp3004
sS'fragment_158.09737'
p3005
g233
(g237
S'Z\xbfR\xa0\xd6\xafd?'
p3006
tp3007
Rp3008
sS'loss_159.08938'
p3009
g233
(g237
S'\xc1a\xb2\xf0\xfe\xce[?'
p3010
tp3011
Rp3012
sS'loss_61.02852'
p3013
g233
(g237
S'\xc1a\xb2\xf0\xfe\xce[?'
p3014
tp3015
Rp3016
sg1672
g233
(g237
S'd\xb5\x1f\x0cn\x84t?'
p3017
tp3018
Rp3019
sS'fragment_204.11373'
p3020
g233
(g237
S'\x11\xceu\xa3\x904\x98?'
p3021
tp3022
Rp3023
sS'loss_132.08964'
p3024
g233
(g237
S'Z\xbfR\xa0\xd6\xafd?'
p3025
tp3026
Rp3027
sg2730
g233
(g237
S'\xc1a\xb2\xf0\xfe\xce[?'
p3028
tp3029
Rp3030
sS'loss_120.05329'
p3031
g233
(g237
S'!\x86\xfc}<\x9b\x8e?'
p3032
tp3033
Rp3034
sS'loss_82.02539'
p3035
g233
(g237
S'G\xd3\xb8\xc8\xa7\x06U?'
p3036
tp3037
Rp3038
sS'loss_149.08142'
p3039
g233
(g237
S'G\xd3\xb8\xc8\xa7\x06U?'
p3040
tp3041
Rp3042
sg942
g233
(g237
S'\x11\x15I\\Y\xdcn?'
p3043
tp3044
Rp3045
sS'fragment_115.03913_C5H7O3'
p3046
g233
(g237
S'\xe0\xee\x8b\x1d\xd1}\xb8?'
p3047
tp3048
Rp3049
sS'fragment_180.11305'
p3050
g233
(g237
S'\xa1|\x1c\xa0\x99\xe8w?'
p3051
tp3052
Rp3053
sS'fragment_95.05996'
p3054
g233
(g237
S'Z\xbfR\xa0\xd6\xafd?'
p3055
tp3056
Rp3057
sS'fragment_222.12329'
p3058
g233
(g237
S'\xa1|\x1c\xa0\x99\xe8w?'
p3059
tp3060
Rp3061
sS'fragment_212.12758'
p3062
g233
(g237
S'\xd4ML\xc8-xk?'
p3063
tp3064
Rp3065
sS'fragment_73.0285_C3H5O2'
p3066
g233
(g237
S'\xa6g\x85\x93\xd8\xad\xcd?'
p3067
tp3068
Rp3069
sS'fragment_162.06606'
p3070
g233
(g237
S'\xd4ML\xc8-xk?'
p3071
tp3072
Rp3073
sg507
g233
(g237
S'\x08\x94\x04\x8c\xcf \x86?'
p3074
tp3075
Rp3076
sS'fragment_222.11073'
p3077
g233
(g237
S'Z\xbfR\xa0\xd6\xafd?'
p3078
tp3079
Rp3080
sg803
g233
(g237
S'\xfc\x9a\x08\x13\x99\xe3\x81?'
p3081
tp3082
Rp3083
sS'loss_78.06737'
p3084
g233
(g237
S'\xc1a\xb2\xf0\xfe\xce[?'
p3085
tp3086
Rp3087
sS'loss_86.03669'
p3088
g233
(g237
S'Z\xbfR\xa0\xd6\xafd?'
p3089
tp3090
Rp3091
sg1388
g233
(g237
S'\x1d\xf8U\x0c\xabKa?'
p3092
tp3093
Rp3094
sS'fragment_133.0498_C5H9O4'
p3095
g233
(g237
S'?\x02\xed?D\xba\xaa?'
p3096
tp3097
Rp3098
sS'loss_64.05223'
p3099
g233
(g237
S'\xd7\xc5\x03q\xda\xf9\x86?'
p3100
tp3101
Rp3102
ssg100
(dp3103
S'loss_167.04264'
p3104
g233
(g237
S'#\xfd\x01\xe3H\xd2_?'
p3105
tp3106
Rp3107
sS'fragment_232.1195'
p3108
g233
(g237
S'\xc9%\xd9h\x9b\\\xa2?'
p3109
tp3110
Rp3111
sg1364
g233
(g237
S'\xb4\x0e\xc1\x9cL\xebp?'
p3112
tp3113
Rp3114
sg613
g233
(g237
S'\xb8m\x01\x7f\x8e\xdbV?'
p3115
tp3116
Rp3117
sg260
g233
(g237
S'jV\xc1\xce\xa9fu?'
p3118
tp3119
Rp3120
sS'loss_182.04282'
p3121
g233
(g237
S'GF\x81\xa3\x81dd?'
p3122
tp3123
Rp3124
sS'fragment_184.09591'
p3125
g233
(g237
S'\xa2 A\xe9#\nr?'
p3126
tp3127
Rp3128
sg682
g233
(g237
S'\xd8\xb1\x81n\x8d\x1dk?'
p3129
tp3130
Rp3131
sS'fragment_106.04977_C3H8NO3'
p3132
g233
(g237
S'JG5&\xa4t\xb4?'
p3133
tp3134
Rp3135
sg1904
g233
(g237
S'}\xe4\xd1\xd9\xe0G\x9e?'
p3136
tp3137
Rp3138
sg2476
g233
(g237
S'\x0e\xb0AM\xde\x00{?'
p3139
tp3140
Rp3141
sS'fragment_102.0547'
p3142
g233
(g237
S'\xc6\x16a\xb2`l\x81?'
p3143
tp3144
Rp3145
sg713
g233
(g237
S'\xc3\xf7A\x7f;|\x7f?'
p3146
tp3147
Rp3148
sS'loss_170.04258'
p3149
g233
(g237
S'#\xfd\x01\xe3H\xd2_?'
p3150
tp3151
Rp3152
sS'fragment_118.04974'
p3153
g233
(g237
S'\x11U\xd1u&Q\x95?'
p3154
tp3155
Rp3156
sg1453
g233
(g237
S'\xb8m\x01\x7f\x8e\xdbV?'
p3157
tp3158
Rp3159
sS'loss_187.04782'
p3160
g233
(g237
S'\xe8\xd3A\xe6\x8c>}?'
p3161
tp3162
Rp3163
sS'loss_164.03191'
p3164
g233
(g237
S'l"\x81\n\xd3&b?'
p3165
tp3166
Rp3167
sg308
g233
(g237
S"'\xbc\xb1m|\xc2\x9b?"
p3168
tp3169
Rp3170
sS'loss_152.03178'
p3171
g233
(g237
S'\xe1\x08\xb1p\x13\x8e\x90?'
p3172
tp3173
Rp3174
sS'loss_138.05259'
p3175
g233
(g237
S'\xaa1!\xa5\xa3\x1a\x83?'
p3176
tp3177
Rp3178
sg268
g233
(g237
S'\x0e\xb0AM\xde\x00{?'
p3179
tp3180
Rp3181
sS'fragment_196.0979'
p3182
g233
(g237
S'GF\x81\xa3\x81dd?'
p3183
tp3184
Rp3185
sg2325
g233
(g237
S'\x08^\x11\x1c\x92\xe0\x95?'
p3186
tp3187
Rp3188
sS'loss_154.04768'
p3189
g233
(g237
S'\xa2 A\xe9#\nr?'
p3190
tp3191
Rp3192
sS'fragment_130.0492'
p3193
g233
(g237
S'l"\x81\n\xd3&b?'
p3194
tp3195
Rp3196
sS'fragment_202.07066'
p3197
g233
(g237
S'S\x16\x11\xea4e\x91?'
p3198
tp3199
Rp3200
sS'loss_161.03245'
p3201
g233
(g237
S'`\x0f9I\x0e\xf6\xa0?'
p3202
tp3203
Rp3204
sS'fragment_232.08279'
p3205
g233
(g237
S'\xf7:\x9d!p\xaf\xb3?'
p3206
tp3207
Rp3208
sS'loss_169.05873'
p3209
g233
(g237
S'\x1f\xb8\xe1b\xf2\x81\x8b?'
p3210
tp3211
Rp3212
sS'fragment_250.09297'
p3213
g233
(g237
S'\xa6\xa7eaiz\xba?'
p3214
tp3215
Rp3216
sg364
g233
(g237
S'GF\x81\xa3\x81dd?'
p3217
tp3218
Rp3219
sS'loss_153.06453'
p3220
g233
(g237
S'M\x8b\xa1#\xd8\xb4\x88?'
p3221
tp3222
Rp3223
sg859
g233
(g237
S'\xc4#qcV<\x92?'
p3224
tp3225
Rp3226
sg376
g233
(g237
S'\xa1:aK\x0f\xaa\x83?'
p3227
tp3228
Rp3229
sS'fragment_60.04477_C2H6NO'
p3230
g233
(g237
S'\xe1\xeaE\xc0\x10\xae\xbe?'
p3231
tp3232
Rp3233
sg911
g233
(g237
S' \x9e\xc1\x00\x07\xe2y?'
p3234
tp3235
Rp3236
sg1488
g233
(g237
S'XhA\x1b\x81\x85v?'
p3237
tp3238
Rp3239
sS'loss_197.05414'
p3240
g233
(g237
S'#\xfd\x01\xe3H\xd2_?'
p3241
tp3242
Rp3243
sS'fragment_250.12682'
p3244
g233
(g237
S'"j\x81<0\xa2f?'
p3245
tp3246
Rp3247
sg895
g233
(g237
S'GF\x81\xa3\x81dd?'
p3248
tp3249
Rp3250
sS'loss_171.05283'
p3251
g233
(g237
S'71\xd1\xdcw\x13\x93?'
p3252
tp3253
Rp3254
sS'loss_162.02881'
p3255
g233
(g237
S'\xf0\xe4!\xa2\x0cO\x8e?'
p3256
tp3257
Rp3258
sg1605
g233
(g237
S'#\xfd\x01\xe3H\xd2_?'
p3259
tp3260
Rp3261
sS'fragment_184.06032'
p3262
g233
(g237
S'(\xaf\xa1\xbc\x86\xf2\x8a?'
p3263
tp3264
Rp3265
sg922
g233
(g237
S'\xf0\xe4!\xa2\x0cO\x8e?'
p3266
tp3267
Rp3268
sg1106
g233
(g237
S'\xf5o\x91hi\xff\x96?'
p3269
tp3270
Rp3271
sS'fragment_88.03919_C3H6NO2'
p3272
g233
(g237
S'\x8e\x9c\xa9\xc3\xed\xc8\xa9?'
p3273
tp3274
Rp3275
sg938
g233
(g237
S'\x02&\x01M1`R?'
p3276
tp3277
Rp3278
ssg103
(dp3279
S'fragment_299.091'
p3280
g233
(g237
S'\xd3\xa4I\x93&M\xa2?'
p3281
tp3282
Rp3283
sS'fragment_111.00762_C5H3O3'
p3284
g233
(g237
S'\x0c\xc2.\x08\xbb \xa4?'
p3285
tp3286
Rp3287
sS'fragment_68.99719_C3HO2'
p3288
g233
(g237
S'^\x10vA\xd8\x05\xb5?'
p3289
tp3290
Rp3291
sS'fragment_197.0443'
p3292
g233
(g237
S'\x1e\xe5t\x94\xd3Q\xa6?'
p3293
tp3294
Rp3295
sS'fragment_108.02079'
p3296
g233
(g237
S'\x80\xa9\xfd\xa5\xf6\x97z?'
p3297
tp3298
Rp3299
sS'fragment_179.03302'
p3300
g233
(g237
S'\xffR\xfbK\xed/\xc3?'
p3301
tp3302
Rp3303
sS'fragment_113.0237'
p3304
g233
(g237
S'\xe7!\x99\x87d\x1eb?'
p3305
tp3306
Rp3307
sg1904
g233
(g237
S'\xbez\xf5\xea\xd5\xabw?'
p3308
tp3309
Rp3310
sg292
g233
(g237
S'\xc5\x88\x11#F\x8cX?'
p3311
tp3312
Rp3313
sS'fragment_157.01314_C6H5O5'
p3314
g233
(g237
S'\x9d\x8er:\xca\xe9\x98?'
p3315
tp3316
Rp3317
sS'loss_138.06832'
p3318
g233
(g237
S'\x08\x0e\x1c8p\xe0\x90?'
p3319
tp3320
Rp3321
sS'fragment_131.03377'
p3322
g233
(g237
S'\x80\xa9\xfd\xa5\xf6\x97z?'
p3323
tp3324
Rp3325
sg304
g233
(g237
S'\xd5\xfeR\xfbK\xed\xb3?'
p3326
tp3327
Rp3328
sS'fragment_191.03319'
p3329
g233
(g237
S'\xee\xdc\xb9s\xe7\xcem?'
p3330
tp3331
Rp3332
sg316
g233
(g237
S'\xe3\x1a\x8bk,\xae\x81?'
p3333
tp3334
Rp3335
sS'loss_56.06255'
p3336
g233
(g237
S'\xe7!\x99\x87d\x1eb?'
p3337
tp3338
Rp3339
sS'fragment_139.00237'
p3340
g233
(g237
S'\xce\xf06\xc3\xdb\x0c\xa7?'
p3341
tp3342
Rp3343
sg1138
g233
(g237
S'\x82\x03\x07\x0e\x1c8\x80?'
p3344
tp3345
Rp3346
sS'fragment_251.09015'
p3347
g233
(g237
S'\xe3\x1a\x8bk,\xae\x81?'
p3348
tp3349
Rp3350
sg344
g233
(g237
S'\xc5\x88\x11#F\x8cX?'
p3351
tp3352
Rp3353
sS'fragment_157.0768_C6H5O5'
p3354
g233
(g237
S'\xee\xdc\xb9s\xe7\xcem?'
p3355
tp3356
Rp3357
sg356
g233
(g237
S'B\xd8\x05a\x17\x84}?'
p3358
tp3359
Rp3360
sS'fragment_147.04375'
p3361
g233
(g237
S'9\x1d\xe5t\x94\xd3q?'
p3362
tp3363
Rp3364
sS'fragment_129.01856_C5H5O4'
p3365
g233
(g237
S'9\x1d\xe5t\x94\xd3q?'
p3366
tp3367
Rp3368
sS'loss_72.05724'
p3369
g233
(g237
S'\xca<$\xf3\x90\xcc\x93?'
p3370
tp3371
Rp3372
sS'fragment_233.08147'
p3373
g233
(g237
S'\x06a\x17\x84]\x10\x86?'
p3374
tp3375
Rp3376
sS'fragment_92.99741'
p3377
g233
(g237
S'\x82\x03\x07\x0e\x1c8\x80?'
p3378
tp3379
Rp3380
sS'fragment_371.14862'
p3381
g233
(g237
S'\xc9\x8f\x1f?~\xfc\x88?'
p3382
tp3383
Rp3384
sS'fragment_353.14133'
p3385
g233
(g237
S'\xfbK\xed/\xb5\xbft?'
p3386
tp3387
Rp3388
sS'loss_120.00558'
p3389
g233
(g237
S'\xe3\x1a\x8bk,\xae\x81?'
p3390
tp3391
Rp3392
sS'fragment_355.15158'
p3393
g233
(g237
S'\x82\x03\x07\x0e\x1c8\x80?'
p3394
tp3395
Rp3396
sS'fragment_235.09632'
p3397
g233
(g237
S'\xfbK\xed/\xb5\xbft?'
p3398
tp3399
Rp3400
sg408
g233
(g237
S'hx\x9b\xe1m\x86\x87?'
p3401
tp3402
Rp3403
ssg106
(dp3404
S'fragment_188.07061_C11H10NO2'
p3405
g233
(g237
S'0\xd7\x0e\xcc\xb5\x03\xbb?'
p3406
tp3407
Rp3408
sS'loss_90.04283'
p3409
g233
(g237
S'"\xd4d\xea\x16{|?'
p3410
tp3411
Rp3412
sS'fragment_98.09598'
p3413
g233
(g237
S'\xf2\xc5a@5\xdcc?'
p3414
tp3415
Rp3416
sS'fragment_144.08061'
p3417
g233
(g237
S'\x8d\x1e\xa4\xd04V\xa1?'
p3418
tp3419
Rp3420
sS'fragment_104.04994'
p3421
g233
(g237
S'\xf2\xc5a@5\xdcc?'
p3422
tp3423
Rp3424
sS'loss_61.01619'
p3425
g233
(g237
S'\x8a%\x04\xf9\x9f\xd7t?'
p3426
tp3427
Rp3428
sS'fragment_145.0765'
p3429
g233
(g237
S'\xa2\xb8j\xfb\x80\xada?'
p3430
tp3431
Rp3432
sS'fragment_118.06544_C8H8N'
p3433
g233
(g237
S'\xde\xb1M,!\xc8\xc3?'
p3434
tp3435
Rp3436
sS'fragment_136.06089'
p3437
g233
(g237
S'c!\x0bY\xc8BV?'
p3438
tp3439
Rp3440
sS'fragment_146.06086'
p3441
g233
(g237
S'\xd3d\xea\x16{\x9c\xa7?'
p3442
tp3443
Rp3444
sS'fragment_142.06476'
p3445
g233
(g237
S'E}:$r\xe1\x8b?'
p3446
tp3447
Rp3448
sS'fragment_117.07032_C8H7N'
p3449
g233
(g237
S'\x92\x91\x91\x91\x91\x91q?'
p3450
tp3451
Rp3452
sS'loss_73.01611'
p3453
g233
(g237
S'\xc3\x06\x1d\xcf_\xe5Q?'
p3454
tp3455
Rp3456
sS'loss_88.08857'
p3457
g233
(g237
S'\xf2\xc5a@5\xdcc?'
p3458
tp3459
Rp3460
sS'loss_92.08342'
p3461
g233
(g237
S'\xf2\xc5a@5\xdcc?'
p3462
tp3463
Rp3464
sg1315
g233
(g237
S'*@\xf2\x82\x085y?'
p3465
tp3466
Rp3467
sg1457
g233
(g237
S'T\x12\xfcI\xb93\xa7?'
p3468
tp3469
Rp3470
sS'loss_99.0893'
p3471
g233
(g237
S'\x82\xb9v`\xae\x1dx?'
p3472
tp3473
Rp3474
sS'loss_88.02701'
p3475
g233
(g237
S'\xc3\x06\x1d\xcf_\xe5Q?'
p3476
tp3477
Rp3478
sg1469
g233
(g237
S'\xc3\x06\x1d\xcf_\xe5Q?'
p3479
tp3480
Rp3481
sS'loss_114.04263'
p3482
g233
(g237
S'aw)\xba?l\x80?'
p3483
tp3484
Rp3485
sS'fragment_159.09194'
p3486
g233
(g237
S'\xd2\xc6m\xa5bLz?'
p3487
tp3488
Rp3489
sS'fragment_146.05935'
p3490
g233
(g237
S'\xe6\x1d\xdb\xc4\x12\x82\xc0?'
p3491
tp3492
Rp3493
sS'fragment_117.05719_C8H7N'
p3494
g233
(g237
S'\x8fy\xc76\xb1\x84\xa0?'
p3495
tp3496
Rp3497
sS'fragment_190.14207'
p3498
g233
(g237
S'\xa2\xb8j\xfb\x80\xada?'
p3499
tp3500
Rp3501
sS'fragment_132.08143'
p3502
g233
(g237
S'\xe0\x18\xd6\xbf\r}\x97?'
p3503
tp3504
Rp3505
sS'fragment_91.05413_C7H7'
p3506
g233
(g237
S'%\xcd\x04\xc2\xab\xf9\xa8?'
p3507
tp3508
Rp3509
sS'fragment_170.06037'
p3510
g233
(g237
S'\x84\xe9\n\x16o7\x9a?'
p3511
tp3512
Rp3513
sS'fragment_143.07379'
p3514
g233
(g237
S'\xe3<\x05H^\x10\xa1?'
p3515
tp3516
Rp3517
sS'fragment_130.06468_C9H8N'
p3518
g233
(g237
S'k\x13K\x08\xf2?\xaf?'
p3519
tp3520
Rp3521
sS'fragment_128.04963'
p3522
g233
(g237
S'\x98wl\x13K\x08\x92?'
p3523
tp3524
Rp3525
sS'fragment_190.08523'
p3526
g233
(g237
S'\x92\xe0O\xca\x9d9h?'
p3527
tp3528
Rp3529
sg709
g233
(g237
S'\xc3\x06\x1d\xcf_\xe5Q?'
p3530
tp3531
Rp3532
sS'loss_137.1052'
p3533
g233
(g237
S'\x03<\xf9\xe20\xa0Z?'
p3534
tp3535
Rp3536
sS'fragment_126.12814'
p3537
g233
(g237
S'\xa3V\xe7l\x99\xfd^?'
p3538
tp3539
Rp3540
sS'fragment_116.06168'
p3541
g233
(g237
S'\x03<\xf9\xe20\xa0Z?'
p3542
tp3543
Rp3544
sS'loss_70.07831'
p3545
g233
(g237
S'\xf2\xc5a@5\xdcc?'
p3546
tp3547
Rp3548
sS'fragment_261.09335'
p3549
g233
(g237
S',p\x868\xc9N\x9b?'
p3550
tp3551
Rp3552
sS'fragment_144.13811'
p3553
g233
(g237
S'\xd2\xc6m\xa5bLz?'
p3554
tp3555
Rp3556
ssg109
(dp3557
S'fragment_55.05466_C4H7'
p3558
g233
(g237
S'8\x82H\xeb\x05\xec\xb1?'
p3559
tp3560
Rp3561
sS'fragment_72.0807_C4H10N'
p3562
g233
(g237
S'\xddwK\xa1?\xf9\xeb?'
p3563
tp3564
Rp3565
sg621
g233
(g237
S'\xe1\x08"\xad\x17\xb0m?'
p3566
tp3567
Rp3568
ssg112
(dp3569
S'fragment_187.14465'
p3570
g233
(g237
S'\x10\xc0\xb2P\x92\rR?'
p3571
tp3572
Rp3573
sS'fragment_219.90121'
p3574
g233
(g237
S'+\xd8\xb1M\xa3\xcc\x9f?'
p3575
tp3576
Rp3577
sS'fragment_293.3515'
p3578
g233
(g237
S'\xc6\xcbm\xafE{\x9f?'
p3579
tp3580
Rp3581
sS'fragment_132.10154_C6H14NO2'
p3582
g233
(g237
S')GJ\xf6\x8e\xcc\xa8?'
p3583
tp3584
Rp3585
sS'fragment_86.09652_C5H12N'
p3586
g233
(g237
S'w\xb7\xa3\x8a\x1cl\xe9?'
p3587
tp3588
Rp3589
sS'fragment_189.12428'
p3590
g233
(g237
S'\x16\xc8\xf5.\xa9\xd2\x88?'
p3591
tp3592
Rp3593
sS'loss_131.09455'
p3594
g233
(g237
S'\xa8\x8fp\t\xa6\xf0}?'
p3595
tp3596
Rp3597
ssg115
(dp3598
S'loss_180.09019'
p3599
g233
(g237
S'f\xf5\xeb\x83E\x9aY?'
p3600
tp3601
Rp3602
sS'fragment_114.10279'
p3603
g233
(g237
S'I[\x98\xb0\xcc\xdb\x8b?'
p3604
tp3605
Rp3606
sS'fragment_437.20718'
p3607
g233
(g237
S'\xfa&\x8e\x8b\xc8}k?'
p3608
tp3609
Rp3610
sS'fragment_277.16473'
p3611
g233
(g237
S'\x06\xb6{\xec\x17\x90\x85?'
p3612
tp3613
Rp3614
sS'fragment_217.13504'
p3615
g233
(g237
S'\xe41.\x01\xcdgU?'
p3616
tp3617
Rp3618
sS'loss_163.06342'
p3619
g233
(g237
S'vn\xd3\xfcf\x16\x86?'
p3620
tp3621
Rp3622
sS'fragment_439.21695'
p3623
g233
(g237
S'\x18\xc1\xe1^A<\x89?'
p3624
tp3625
Rp3626
sS'loss_158.11694'
p3627
g233
(g237
S'*x\x85\xe0O\x85\x9a?'
p3628
tp3629
Rp3630
sS'fragment_260.13939'
p3631
g233
(g237
S'\x1ff\xd5\xa7\xbe\xe4p?'
p3632
tp3633
Rp3634
sg552
g233
(g237
S'\xd4\xe2\xa7\x009\x1d\xaa?'
p3635
tp3636
Rp3637
sS'fragment_88.07588'
p3638
g233
(g237
S'\xc1\xb8\xe3\t\x99\nt?'
p3639
tp3640
Rp3641
sS'fragment_204.10231'
p3642
g233
(g237
S'\xe8\xb8\xa9\x06\xbe\xcc]?'
p3643
tp3644
Rp3645
sS'fragment_276.13513'
p3646
g233
(g237
S'\xf6\x9f\x12\x86\xd7\x18c?'
p3647
tp3648
Rp3649
sS'fragment_65.03878_C5H5'
p3650
g233
(g237
S'N~\xafb\xf2\x18\xa7?'
p3651
tp3652
Rp3653
sS'fragment_119.04874_C8H7O'
p3654
g233
(g237
S'\xfd\n\x03\xf4\x16\xcb\xce?'
p3655
tp3656
Rp3657
sS'fragment_147.04375_C9H7O2'
p3658
g233
(g237
S'(\xa4\xb2\xda\xb1\xfc\xd1?'
p3659
tp3660
Rp3661
sS'fragment_218.11813'
p3662
g233
(g237
S'\xe41.\x01\xcdgU?'
p3663
tp3664
Rp3665
sS'loss_77.06013'
p3666
g233
(g237
S'\xf6\x9f\x12\x86\xd7\x18c?'
p3667
tp3668
Rp3669
sS'fragment_455.21338'
p3670
g233
(g237
S'\xd5\x1b\xc5\x9a\x8c\xf0\x82?'
p3671
tp3672
Rp3673
sS'loss_186.11136'
p3674
g233
(g237
S'C\xc5`\x89\x15\xd5\x9b?'
p3675
tp3676
Rp3677
sS'loss_181.07293'
p3678
g233
(g237
S'b\x0b\xf2ks0w?'
p3679
tp3680
Rp3681
sS'fragment_115.08708'
p3682
g233
(g237
S'f\xf5\xeb\x83E\x9aY?'
p3683
tp3684
Rp3685
sS'fragment_91.05413_C7H7'
p3686
g233
(g237
S'\xd1\x1f]\x9e5|\xbf?'
p3687
tp3688
Rp3689
ssg118
(dp3690
S'fragment_116.07116_C5H10NO2'
p3691
g233
(g237
S'\xc0%S\xc5\xb1>\xde?'
p3692
tp3693
Rp3694
sS'loss_115.06303_C5H9NO2'
p3695
g233
(g237
S'j\xbb\xeb\xde\x81\xeb\xb9?'
p3696
tp3697
Rp3698
sg2957
g233
(g237
S'\xc3\xb9J$\rJ\xc5?'
p3699
tp3700
Rp3701
sS'fragment_215.13959'
p3702
g233
(g237
S'&\xf7\xc9\x9coBu?'
p3703
tp3704
Rp3705
sS'fragment_227.10379'
p3706
g233
(g237
S'\xbd3\xdd\x17qr\x80?'
p3707
tp3708
Rp3709
sS'loss_161.06841'
p3710
g233
(g237
S'\x08P\xe9\xbbI]\xc0?'
p3711
tp3712
Rp3713
ssg121
(dp3714
S'fragment_198.07643'
p3715
g233
(g237
S'\xfbc\x9d\xdc\xf8!\x94?'
p3716
tp3717
Rp3718
sS'fragment_96.04413_C5H6NO'
p3719
g233
(g237
S'e\xde\x86\x9e&\x01\xad?'
p3720
tp3721
Rp3722
sS'fragment_106.02877'
p3723
g233
(g237
S'(\x1bX\xe0\xf8\xf4\x80?'
p3724
tp3725
Rp3726
sg2591
g233
(g237
S'\xebp\x85\xd8]\x9e\x85?'
p3727
tp3728
Rp3729
sS'fragment_78.03411'
p3730
g233
(g237
S'\xd7\xc6\xc3\xadH\x07\x8c?'
p3731
tp3732
Rp3733
sS'loss_186.07345'
p3734
g233
(g237
S'"h\x84S?\xe1b?'
p3735
tp3736
Rp3737
sS'fragment_95.01241'
p3738
g233
(g237
S'8yS\xc6\xea\x1cS?'
p3739
tp3740
Rp3741
sg709
g233
(g237
S'"h\x84S?\xe1b?'
p3742
tp3743
Rp3744
sS'fragment_97.04816'
p3745
g233
(g237
S'\xe5\xbd\xb1K\xa4\x8ag?'
p3746
tp3747
Rp3748
sg1453
g233
(g237
S'\xb4\xfa\xfb\x83l\x9b\xb7?'
p3749
tp3750
Rp3751
sS'loss_43.98989'
p3752
g233
(g237
S"[\x9eB'E\x91\xac?"
p3753
tp3754
Rp3755
sS'fragment_101.02501'
p3756
g233
(g237
S'8yS\xc6\xea\x1cS?'
p3757
tp3758
Rp3759
sS'fragment_286.0914'
p3760
g233
(g237
S'\x89\xbe\xf5\xbf\xbb\x88n?'
p3761
tp3762
Rp3763
sg2431
g233
(g237
S'qZ\xc0\xfc2\xc4\xb4?'
p3764
tp3765
Rp3766
sS'fragment_180.06461'
p3767
g233
(g237
S'\x89\xbe\xf5\xbf\xbb\x88n?'
p3768
tp3769
Rp3770
sS'fragment_125.04309'
p3771
g233
(g237
S'e\xde\x86\x9e&\x01\xad?'
p3772
tp3773
Rp3774
sS'fragment_81.05269'
p3775
g233
(g237
S'Z5J\x92\xcelw?'
p3776
tp3777
Rp3778
sS'fragment_124.03979_C6H6NO2'
p3779
g233
(g237
S'\xcbMT\xc15^\xd9?'
p3780
tp3781
Rp3782
sg2606
g233
(g237
S'p\x8b\x99D?\x95\x7f?'
p3783
tp3784
Rp3785
sS'fragment_141.01847'
p3786
g233
(g237
S'"h\x84S?\xe1b?'
p3787
tp3788
Rp3789
sg392
g233
(g237
S'\x89\xbe\xf5\xbf\xbb\x88n?'
p3790
tp3791
Rp3792
sS'loss_172.05826'
p3793
g233
(g237
S'"h\x84S?\xe1b?'
p3794
tp3795
Rp3796
sS'fragment_119.03636'
p3797
g233
(g237
S'8yS\xc6\xea\x1cS?'
p3798
tp3799
Rp3800
sg404
g233
(g237
S'\xc8d\xf2-\x96\xdf\x9c?'
p3801
tp3802
Rp3803
sg2707
g233
(g237
S'\x89\xbe\xf5\xbf\xbb\x88n?'
p3804
tp3805
Rp3806
sg1074
g233
(g237
S'\xad5lL\xda\xebz?'
p3807
tp3808
Rp3809
ssg124
(dp3810
S'fragment_143.03187'
p3811
g233
(g237
S'\x92\x85,d!\x0b\xa9?'
p3812
tp3813
Rp3814
sS'loss_28.03075'
p3815
g233
(g237
S'@\x8e\xcd\t\xe0\x8ap?'
p3816
tp3817
Rp3818
sS'loss_41.99961'
p3819
g233
(g237
S'\x02o#O\xcb\x8b\x85?'
p3820
tp3821
Rp3822
sS'fragment_94.04141'
p3823
g233
(g237
S'\x02o#O\xcb\x8b\x85?'
p3824
tp3825
Rp3826
sS'fragment_137.05989_C8H9O2'
p3827
g233
(g237
S'i\x876~\x04\xfc\x94?'
p3828
tp3829
Rp3830
sS'fragment_202.068'
p3831
g233
(g237
S'\x98\xa3z\r\xf4\xbe\xa6?'
p3832
tp3833
Rp3834
sS'fragment_95.05996_C6H7O'
p3835
g233
(g237
S"\x04'F\xd3a\x86\x84?"
p3836
tp3837
Rp3838
sS'fragment_95.04936_C6H7O'
p3839
g233
(g237
S'\x94\xacr7\x83\x91\xe1?'
p3840
tp3841
Rp3842
sS'fragment_137.10702_C8H9O2'
p3843
g233
(g237
S'\xa3;(\xa2\xe4\xa3\xa1?'
p3844
tp3845
Rp3846
sS'fragment_137.07044_C8H9O2'
p3847
g233
(g237
S'\xfaF\xbb\xc2\x07\x9c\x88?'
p3848
tp3849
Rp3850
sg847
g233
(g237
S'\xec\xf6\xea\xa9\x80\xbc\x8e?'
p3851
tp3852
Rp3853
sS'loss_43.01827'
p3854
g233
(g237
S'\xfd\xfe\xddF\x9e\x96\x87?'
p3855
tp3856
Rp3857
sg1042
g233
(g237
S'_\xf9\xa2\xcc\x04SY?'
p3858
tp3859
Rp3860
sS'fragment_200.07196'
p3861
g233
(g237
S"r\xb9\xb8\xed\xb8'Q?"
p3862
tp3863
Rp3864
ssg127
(dp3865
g2986
g233
(g237
S'\n\xefI,\xb0\x89~?'
p3866
tp3867
Rp3868
sS'fragment_198.09018'
p3869
g233
(g237
S'\xc2g\xb2\x06w\tr?'
p3870
tp3871
Rp3872
sS'loss_101.99542'
p3873
g233
(g237
S'\xc2g\xb2\x06w\tr?'
p3874
tp3875
Rp3876
sg887
g233
(g237
S'>\x7f\xd5\xb3V\xf7z?'
p3877
tp3878
Rp3879
sS'fragment_190.08767'
p3880
g233
(g237
S'\xec\x81k\x84\xf7$V?'
p3881
tp3882
Rp3883
sS'fragment_126.11071'
p3884
g233
(g237
S'\x81aTu\xaaI]?'
p3885
tp3886
Rp3887
sS'loss_115.02679'
p3888
g233
(g237
S'\xbf\x9a\xd9\x99\xa7\xa9\x8c?'
p3889
tp3890
Rp3891
sS'fragment_198.07423'
p3892
g233
(g237
S'\x81aTu\xaaI]?'
p3893
tp3894
Rp3895
sS'loss_116.01057'
p3896
g233
(g237
S'\xcc~\xbc;\x11\xc5\x8b?'
p3897
tp3898
Rp3899
sg1170
g233
(g237
S'\n\xefI,\xb0\x89~?'
p3900
tp3901
Rp3902
sS'loss_102.03159'
p3903
g233
(g237
S's\x0fa;\xfddw?'
p3904
tp3905
Rp3906
sg1461
g233
(g237
S'\xa7\x9f\xec\xc2\xa3\xd2s?'
p3907
tp3908
Rp3909
sS'fragment_198.02136'
p3910
g233
(g237
S'\xec\x81k\x84\xf7$V?'
p3911
tp3912
Rp3913
sg304
g233
(g237
S'"\x80\x07\xa4\xe1[i?'
p3914
tp3915
Rp3916
sS'loss_104.0108'
p3917
g233
(g237
S'XG\x9b\xf7).y?'
p3918
tp3919
Rp3920
sS'loss_88.01588_C3H4O3'
p3921
g233
(g237
S'Y\x92\x03\xc8\xc0+\xe6?'
p3922
tp3923
Rp3924
sS'fragment_208.11507'
p3925
g233
(g237
S'W\x10\x93+\x88\xc9e?'
p3926
tp3927
Rp3928
sg256
g233
(g237
S'1\xafR\x16\xe2t\x91?'
p3929
tp3930
Rp3931
sS'fragment_180.07627'
p3932
g233
(g237
S'\x8c\xa0\x1e\xb3.7b?'
p3933
tp3934
Rp3935
ssg130
(dp3936
S'fragment_98.06001_C5H8NO'
p3937
g233
(g237
S'\xe4\xde@\x05\x17\x1a\xea?'
p3938
tp3939
Rp3940
sS'fragment_381.08163'
p3941
g233
(g237
S'\xc5\x99\x03\xf3\x9b\x8e\x90?'
p3942
tp3943
Rp3944
sS'fragment_144.0659_C6H10NO3'
p3945
g233
(g237
S'\xb1\xa5\x99%\xb3u\x96?'
p3946
tp3947
Rp3948
sS'fragment_297.16275'
p3949
g233
(g237
S'wR;C]\x14\x87?'
p3950
tp3951
Rp3952
sg803
g233
(g237
S'\xd5Eq\x91`\\S?'
p3953
tp3954
Rp3955
ssg133
(dp3956
S'fragment_161.10742'
p3957
g233
(g237
S'#C_\xff\xc8-\x81?'
p3958
tp3959
Rp3960
sg252
g233
(g237
S'\x98f\x1b-<d\xa9?'
p3961
tp3962
Rp3963
sS'fragment_111.03205'
p3964
g233
(g237
S'\xdaw\x9c\x8a\xa1\xe0P?'
p3965
tp3966
Rp3967
sS'loss_161.10507'
p3968
g233
(g237
S'\xdaw\x9c\x8a\xa1\xe0P?'
p3969
tp3970
Rp3971
sS'loss_86.04753'
p3972
g233
(g237
S'\xdaw\x9c\x8a\xa1\xe0P?'
p3973
tp3974
Rp3975
sS'loss_175.09622'
p3976
g233
(g237
S'\xcehCD\xc2y`?'
p3977
tp3978
Rp3979
sg1825
g233
(g237
S'\xbaw\x91`\x0bKt?'
p3980
tp3981
Rp3982
sg1868
g233
(g237
S'?\xff\xbd\x03{~d?'
p3983
tp3984
Rp3985
sS'fragment_67.05401'
p3986
g233
(g237
S'?\xff\xbd\x03{~d?'
p3987
tp3988
Rp3989
sS'fragment_308.22437'
p3990
g233
(g237
S'\xcehCD\xc2y`?'
p3991
tp3992
Rp3993
sS'fragment_71.08573'
p3994
g233
(g237
S'\xb0\x958\xc33\x83h?'
p3995
tp3996
Rp3997
sg588
g233
(g237
S'\xbc\xa4\x91\t\x13\xeaX?'
p3998
tp3999
Rp4000
sS'fragment_154.04951'
p4001
g233
(g237
S'!,\xb3\x82\xec\x87l?'
p4002
tp4003
Rp4004
sg3142
g233
(g237
S'\x82=?\n\xe8\x99\xa0?'
p4005
tp4006
Rp4007
sg709
g233
(g237
S'\xbc\xa4\x91\t\x13\xeaX?'
p4008
tp4009
Rp4010
sS'fragment_136.07599_C8H10NO'
p4011
g233
(g237
S'u\xaa\xed\xb9\x05\\\xd0?'
p4012
tp4013
Rp4014
sg741
g233
(g237
S'H\xbf@\x8e\xe0\xa3\x93?'
p4015
tp4016
Rp4017
sS'fragment_154.08575'
p4018
g233
(g237
S'A!\x94\x16\xed \x91?'
p4019
tp4020
Rp4021
sS'fragment_182.08217_C9H12NO3'
p4022
g233
(g237
S'O\xfc"_\xf4\x9e\xb7?'
p4023
tp4024
Rp4025
sS'loss_46.0529'
p4026
g233
(g237
S'?\xff\xbd\x03{~d?'
p4027
tp4028
Rp4029
sS'fragment_119.04874_C8H7O'
p4030
g233
(g237
S'(\xd0\xa0m\x83_\xa5?'
p4031
tp4032
Rp4033
sS'fragment_95.04936_C6H7O'
p4034
g233
(g237
S'\xbf\xf3g\xc5\x8c+\x9a?'
p4035
tp4036
Rp4037
sS'fragment_108.08051'
p4038
g233
(g237
S'\xd4\xefC?\xd9V~?'
p4039
tp4040
Rp4041
sS'fragment_93.05717'
p4042
g233
(g237
S'!,\xb3\x82\xec\x87l?'
p4043
tp4044
Rp4045
sS'fragment_247.1084'
p4046
g233
(g237
S'\x1c\xb0\xdc\x1dk\xa7\x96?'
p4047
tp4048
Rp4049
sS'loss_45.04397'
p4050
g233
(g237
S'\xbc\xa4\x91\t\x13\xeaX?'
p4051
tp4052
Rp4053
sS'fragment_293.11362'
p4054
g233
(g237
S'\xd4\xefC?\xd9V~?'
p4055
tp4056
Rp4057
sS'loss_89.0597'
p4058
g233
(g237
S'\xbc\xa4\x91\t\x13\xeaX?'
p4059
tp4060
Rp4061
sS'loss_75.03184'
p4062
g233
(g237
S'\x81,\xd4\x00\xafHr?'
p4063
tp4064
Rp4065
sS'fragment_85.10122'
p4066
g233
(g237
S'\xb0\x958\xc33\x83h?'
p4067
tp4068
Rp4069
sg2699
g233
(g237
S'\xa5{\xb5\xe6\xbe\x1f\x90?'
p4070
tp4071
Rp4072
sS'fragment_123.04467_C7H7O2'
p4073
g233
(g237
S'p\xa6\x8dx@\xa9\xad?'
p4074
tp4075
Rp4076
sS'loss_91.0268'
p4077
g233
(g237
S'\xdaw\x9c\x8a\xa1\xe0P?'
p4078
tp4079
Rp4080
sS'fragment_119.04991_C8H7O'
p4081
g233
(g237
S'\xdd\xc6rF\x1b"\x92?'
p4082
tp4083
Rp4084
sS'fragment_165.05578'
p4085
g233
(g237
S'\x0ft\x83.\x84\xa1\x91?'
p4086
tp4087
Rp4088
sS'fragment_160.90206'
p4089
g233
(g237
S'\xfc\xc0<\xfd\rc\xa8?'
p4090
tp4091
Rp4092
ssg136
(dp4093
S'fragment_353.2309'
p4094
g233
(g237
S'8q\x8a\xca\xc2y\x95?'
p4095
tp4096
Rp4097
sS'fragment_263.16217'
p4098
g233
(g237
S'\xcf\x1cBv\xc5n\x82?'
p4099
tp4100
Rp4101
sS'fragment_105.06919'
p4102
g233
(g237
S'\x0f.\xbc\xba\x81[z?'
p4103
tp4104
Rp4105
sS'fragment_85.06477_C5H9O'
p4106
g233
(g237
S'\xc9\xf3\xc0_\x93\xb6\xba?'
p4107
tp4108
Rp4109
sS'loss_90.06784'
p4110
g233
(g237
S'd%f\xd5\xfayr?'
p4111
tp4112
Rp4113
sS'fragment_57.07013_C4H9'
p4114
g233
(g237
S'\x92 \xa8\x00wn\xe7?'
p4115
tp4116
Rp4117
sS'fragment_53.00259_C3HO'
p4118
g233
(g237
S'\xa6J\x81a{2\x99?'
p4119
tp4120
Rp4121
ssg139
(dp4122
S'fragment_232.06242'
p4123
g233
(g237
S'r\xa6\xb17]|Q?'
p4124
tp4125
Rp4126
sS'fragment_105.04464'
p4127
g233
(g237
S'8\x9bV!\xd0\x03]?'
p4128
tp4129
Rp4130
sS'fragment_246.13417'
p4131
g233
(g237
S'\xfb\xaf\x1d0[\xbes?'
p4132
tp4133
Rp4134
sS'fragment_328.17459'
p4135
g233
(g237
S'\x96\xe8\xa2V\x84ap?'
p4136
tp4137
Rp4138
sS'fragment_166.12292'
p4139
g233
(g237
S'5\x17\xef\xff\xf2\x8c\x97?'
p4140
tp4141
Rp4142
sS'fragment_246.07942'
p4143
g233
(g237
S'b\x11\xe9\xd2lMr?'
p4144
tp4145
Rp4146
sS'fragment_152.10755'
p4147
g233
(g237
S"\xb3\xa3\xf2\xe8F'\x9b?"
p4148
tp4149
Rp4150
sS'loss_70.04167'
p4151
g233
(g237
S'\xc8%\x0c\x11aCs?'
p4152
tp4153
Rp4154
sS'fragment_93.06981_C7H9'
p4155
g233
(g237
S'Yx\x86\xd6b\x14\xb5?'
p4156
tp4157
Rp4158
sS'loss_68.02601'
p4159
g233
(g237
S'\xda\xf1\x932\x11P\x9a?'
p4160
tp4161
Rp4162
sg308
g233
(g237
S'a\xc4@nO\xb4t?'
p4163
tp4164
Rp4165
sg757
g233
(g237
S'\xfc\xfc\xc5\x94xWq?'
p4166
tp4167
Rp4168
sS'fragment_95.04936'
p4169
g233
(g237
S'\xa8m\xda\xa8\xe8\xf6\x89?'
p4170
tp4171
Rp4172
sS'fragment_103.05448_C8H7'
p4173
g233
(g237
S'C7e\xe8\xc2M\xba?'
p4174
tp4175
Rp4176
sS'loss_40.03137'
p4177
g233
(g237
S'hv\xf1\x8c\xd0m`?'
p4178
tp4179
Rp4180
sg2090
g233
(g237
S'f\xdc\xa0\xc3\x95;e?'
p4181
tp4182
Rp4183
sS'fragment_53.03888_C4H5'
p4184
g233
(g237
S'\x83\xd5\x83\x15\xb9\x91\xb4?'
p4185
tp4186
Rp4187
sS'fragment_138.05067'
p4188
g233
(g237
S'h\xa1\x00\x1f\xed\x07\x98?'
p4189
tp4190
Rp4191
sS'loss_66.04673'
p4192
g233
(g237
S'hv\xf1\x8c\xd0m`?'
p4193
tp4194
Rp4195
sS'loss_85.05259'
p4196
g233
(g237
S'\t\xf8=0.TU?'
p4197
tp4198
Rp4199
sg1295
g233
(g237
S'\x94NR\x8dI/u?'
p4200
tp4201
Rp4202
sS'fragment_121.06489_C8H9O'
p4203
g233
(g237
S'\xbas?\xb1\xa2Z\xda?'
p4204
tp4205
Rp4206
sS'fragment_91.05413_C7H7'
p4207
g233
(g237
S'\x84",z\xd6*\xb2?'
p4208
tp4209
Rp4210
sS'fragment_111.03864'
p4211
g233
(g237
S'\x95\x7f\xb9\xb47\xebl?'
p4212
tp4213
Rp4214
sS'fragment_93.02726_C7H9'
p4215
g233
(g237
S'r\xa6\xb17]|Q?'
p4216
tp4217
Rp4218
sS'loss_151.02983'
p4219
g233
(g237
S'=\xcf\xf7\xb3EhS?'
p4220
tp4221
Rp4222
sg1725
g233
(g237
S')\x06\x8e\xbc\xdf\xd4}?'
p4223
tp4224
Rp4225
sS'fragment_138.09145'
p4226
g233
(g237
S'\xc7\xbc"o\x14\xcdo?'
p4227
tp4228
Rp4229
sS'fragment_77.03873'
p4230
g233
(g237
S'\xfb\x93\xdc\xf2+\xe1m?'
p4231
tp4232
Rp4233
sS'fragment_120.03932'
p4234
g233
(g237
S'\xc9r\xb4u~\xdcp?'
p4235
tp4236
Rp4237
sg408
g233
(g237
S'a\xa8\xff0 \xd7n?'
p4238
tp4239
Rp4240
sS'loss_85.00474'
p4241
g233
(g237
S'8\x9bV!\xd0\x03]?'
p4242
tp4243
Rp4244
ssg142
(dp4245
S'loss_137.08402'
p4246
g233
(g237
S'\xee\x95\x03t\x04N~?'
p4247
tp4248
Rp4249
sg1142
g233
(g237
S'\xfd\xbboH\x9bnS?'
p4250
tp4251
Rp4252
sg1198
g233
(g237
S'5Ft_\xef\x82\xa0?'
p4253
tp4254
Rp4255
sg564
g233
(g237
S'\x19\xc5\xe0W]\xd4\x90?'
p4256
tp4257
Rp4258
sS'loss_145.08506'
p4259
g233
(g237
S'\xad\xb2)f\xa7\x17\x86?'
p4260
tp4261
Rp4262
sS'fragment_221.12807'
p4263
g233
(g237
S'\x9b\xbd\x17\xdf)\xf8b?'
p4264
tp4265
Rp4266
sS'fragment_200.13942'
p4267
g233
(g237
S'\x9b\xbd\x17\xdf)\xf8b?'
p4268
tp4269
Rp4270
sS'loss_62.00034'
p4271
g233
(g237
S'\x9b\xbd\x17\xdf)\xf8b?'
p4272
tp4273
Rp4274
sg1900
g233
(g237
S'\x9b\xbd\x17\xdf)\xf8b?'
p4275
tp4276
Rp4277
sS'loss_146.06849'
p4278
g233
(g237
S'\xfb7\xb0\xea\x1c\xb8\xcd?'
p4279
tp4280
Rp4281
sS'loss_174.06386'
p4282
g233
(g237
S'|\xa2\x99\x83\x15\xb8\x8a?'
p4283
tp4284
Rp4285
sS'fragment_168.06711'
p4286
g233
(g237
S'\x99\x9bO\x83w\xaf\\?'
p4287
tp4288
Rp4289
sS'fragment_89.10724'
p4290
g233
(g237
S'\x0c\xc1<\xdfx\xfc\x91?'
p4291
tp4292
Rp4293
sS'fragment_357.15128'
p4294
g233
(g237
S'\xee\x95\x03t\x04N~?'
p4295
tp4296
Rp4297
sS'fragment_212.10437'
p4298
g233
(g237
S'\x99\x9bO\x83w\xaf\\?'
p4299
tp4300
Rp4301
sS'loss_164.07907'
p4302
g233
(g237
S'\xa1\xae\x85\xed\xc2?\x87?'
p4303
tp4304
Rp4305
sS'fragment_250.10834'
p4306
g233
(g237
S'\xde\xc2\xb9H9w\x81?'
p4307
tp4308
Rp4309
sS'loss_192.07446'
p4310
g233
(g237
S'B\x86)\xd4;\x7f\xb0?'
p4311
tp4312
Rp4313
sS'fragment_225.10127'
p4314
g233
(g237
S'i\xad\x87\xfc\x97\x98g?'
p4315
tp4316
Rp4317
sS'fragment_130.05051'
p4318
g233
(g237
S'\x88\xa6=\xfc\xf9\x8f\x89?'
p4319
tp4320
Rp4321
sS'fragment_205.09972'
p4322
g233
(g237
S'8\xae\xdbG_]w?'
p4323
tp4324
Rp4325
sS'fragment_267.13379'
p4326
g233
(g237
S'\x83\xc6\xb3\x1b\xbalp?'
p4327
tp4328
Rp4329
sS'fragment_207.08542'
p4330
g233
(g237
S'\x9b\xbd\x17\xdf)\xf8b?'
p4331
tp4332
Rp4333
sS'fragment_147.07588_C5H11N2O3'
p4334
g233
(g237
S'/\x803\x1fe;\xb2?'
p4335
tp4336
Rp4337
sS'loss_184.0733'
p4338
g233
(g237
S'i\xad\x87\xfc\x97\x98g?'
p4339
tp4340
Rp4341
sS'fragment_419.15237'
p4342
g233
(g237
S'\xb0\x1a\x91N\x17\xf2\xac?'
p4343
tp4344
Rp4345
sS'fragment_249.09818'
p4346
g233
(g237
S'\x9b\xbd\x17\xdf)\xf8b?'
p4347
tp4348
Rp4349
sS'fragment_267.10934'
p4350
g233
(g237
S'7\x9d\xf7\x19\x069l?'
p4351
tp4352
Rp4353
sS'fragment_221.10318'
p4354
g233
(g237
S'\x99\x9bO\x83w\xaf\\?'
p4355
tp4356
Rp4357
sS'loss_148.08497'
p4358
g233
(g237
S'\x9b\xbd\x17\xdf)\xf8b?'
p4359
tp4360
Rp4361
sg1054
g233
(g237
S'\xbc\xa6\x12\xcf+\x81\x99?'
p4362
tp4363
Rp4364
sg4226
g233
(g237
S'Q\xb6#9(\ru?'
p4365
tp4366
Rp4367
sS'loss_46.03002'
p4368
g233
(g237
S'\x99\x9bO\x83w\xaf\\?'
p4369
tp4370
Rp4371
sg2618
g233
(g237
S'8\xae\xdbG_]w?'
p4372
tp4373
Rp4374
sS'loss_129.04224'
p4375
g233
(g237
S'\xfa2i"r\x01\xa6?'
p4376
tp4377
Rp4378
sS'fragment_176.08228'
p4379
g233
(g237
S'\x9b\xbd\x17\xdf)\xf8b?'
p4380
tp4381
Rp4382
sS'loss_183.08923'
p4383
g233
(g237
S'\xf3\xb8\xf4\xed\xafL\x94?'
p4384
tp4385
Rp4386
sS'fragment_172.17062'
p4387
g233
(g237
S'Q\xb6#9(\ru?'
p4388
tp4389
Rp4390
sS'loss_168.1509'
p4391
g233
(g237
S'\xd4\xaeZ\xc0\xf40\x97?'
p4392
tp4393
Rp4394
sS'fragment_143.07228'
p4395
g233
(g237
S'j\xbek*\xf1\xbcr?'
p4396
tp4397
Rp4398
sS'loss_176.07941'
p4399
g233
(g237
S'\xee\x95\x03t\x04N~?'
p4400
tp4401
Rp4402
ssg145
(dp4403
S'loss_27.99401_CO'
p4404
g233
(g237
S'\xee#\xe3Y\x92\xff\xe8?'
p4405
tp4406
Rp4407
sg316
g233
(g237
S'\xfa\x08 \xcb\x8bK\xa1?'
p4408
tp4409
Rp4410
sS'loss_55.98954_C2O2'
p4411
g233
(g237
S'\xd0LS\x18\xed\xff\xa0?'
p4412
tp4413
Rp4414
sS'loss_54.00997_C3H2O'
p4415
g233
(g237
S'\xf0\r\x10]\xb7\x1d\x94?'
p4416
tp4417
Rp4418
ssg148
(dp4419
S'fragment_539.29327'
p4420
g233
(g237
S'\xb4\x14\xbc\x1dC\xdds?'
p4421
tp4422
Rp4423
sS'fragment_397.16953'
p4424
g233
(g237
S'\xb0$\x82\x03\x8c\xdek?'
p4425
tp4426
Rp4427
sS'loss_82.0528'
p4428
g233
(g237
S'8;"_))T?'
p4429
tp4430
Rp4431
sS'fragment_137.04626'
p4432
g233
(g237
S'^\xeb\xe10\t\x88\x94?'
p4433
tp4434
Rp4435
sS'fragment_428.03409'
p4436
g233
(g237
S'\xe0v3\xde\x8f\xf6c?'
p4437
tp4438
Rp4439
sS'fragment_564.28772'
p4440
g233
(g237
S'l\xcb\xdf\xd4\x90\xfca?'
p4441
tp4442
Rp4443
sS'loss_162.03528'
p4444
g233
(g237
S'\xdd@\xcfm]\xf7\xa8?'
p4445
tp4446
Rp4447
sS'fragment_136.06239_C5H6N5'
p4448
g233
(g237
S'\x85iV\xdf[\x01\xe6?'
p4449
tp4450
Rp4451
sS'fragment_318.09418'
p4452
g233
(g237
S'T"\x87\xe7\x8e\xf0e?'
p4453
tp4454
Rp4455
sS'fragment_92.02437'
p4456
g233
(g237
S'\xb0$\x82\x03\x8c\xdek?'
p4457
tp4458
Rp4459
sg2514
g233
(g237
S" \x92\xc9q'\x1dX?"
p4460
tp4461
Rp4462
sS'fragment_348.07307'
p4463
g233
(g237
S'\x99{)\x16\x8a\xd2o?'
p4464
tp4465
Rp4466
sS'fragment_632.31995'
p4467
g233
(g237
S" \x92\xc9q'\x1dX?"
p4468
tp4469
Rp4470
sS'loss_140.05793'
p4471
g233
(g237
S'8;"_))T?'
p4472
tp4473
Rp4474
sg2610
g233
(g237
S'\xf8\x1f\x8c\xcb\x91\x02`?'
p4475
tp4476
Rp4477
sg2648
g233
(g237
S'\xc8\xcd\xda\xf0\x8d\xeag?'
p4478
tp4479
Rp4480
sg3205
g233
(g237
S'\xc8\xcd\xda\xf0\x8d\xeag?'
p4481
tp4482
Rp4483
sg3220
g233
(g237
S'\xf8\x1f\x8c\xcb\x91\x02`?'
p4484
tp4485
Rp4486
sS'loss_153.04184'
p4487
g233
(g237
S'Q\xae\xdb\x93\x85\xf1\x9b?'
p4488
tp4489
Rp4490
sS'fragment_388.15961'
p4491
g233
(g237
S'\x08\xe9p\x84%\x11\\?'
p4492
tp4493
Rp4494
sg2606
g233
(g237
S'8;"_))T?'
p4495
tp4496
Rp4497
sS'fragment_660.32251'
p4498
g233
(g237
S" \x92\xc9q'\x1dX?"
p4499
tp4500
Rp4501
sS'fragment_216.0282'
p4502
g233
(g237
S'\x07\xa3\x81v\x1dU\x82?'
p4503
tp4504
Rp4505
sg2537
g233
(g237
S" \x92\xc9q'\x1dX?"
p4506
tp4507
Rp4508
sS'fragment_119.03518_C5H3N4'
p4509
g233
(g237
S'\xf3N\x13\xc7\xff%\xa4?'
p4510
tp4511
Rp4512
sS'fragment_298.09748'
p4513
g233
(g237
S'\xe0v3\xde\x8f\xf6c?'
p4514
tp4515
Rp4516
sS'fragment_564.29015'
p4517
g233
(g237
S'T"\x87\xe7\x8e\xf0e?'
p4518
tp4519
Rp4520
ssg151
(dp4521
S'fragment_69.07013_C5H9'
p4522
g233
(g237
S'\xa3\xec\x18\xbb\x06\xfe\xe9?'
p4523
tp4524
Rp4525
sS'fragment_53.00259_C3HO'
p4526
g233
(g237
S'\x82m8B\xdb\xbb\xc0?'
p4527
tp4528
Rp4529
ssg154
(dp4530
S'loss_198.0934'
p4531
g233
(g237
S'\xf6\xb7\x1b\xd9\xa4\xb4Q?'
p4532
tp4533
Rp4534
sg666
g233
(g237
S'hJ\xd1\xbe\x9bFd?'
p4535
tp4536
Rp4537
sS'loss_168.09943'
p4538
g233
(g237
S'896N\x8e\x8d\xb3?'
p4539
tp4540
Rp4541
sS'loss_196.09452'
p4542
g233
(g237
S'\x0b]\x85\xb02\xd8y?'
p4543
tp4544
Rp4545
sS'fragment_109.02775'
p4546
g233
(g237
S'q\n\xd1\xc0\x8b\xc6\x84?'
p4547
tp4548
Rp4549
sS'loss_184.09455'
p4550
g233
(g237
S'#\xe1\xf6H\xb8=\x92?'
p4551
tp4552
Rp4553
sg709
g233
(g237
S'\xbced\x01>\xa2\x82?'
p4554
tp4555
Rp4556
sg717
g233
(g237
S'\x9f\x01\xf3g\xc0\xfci?'
p4557
tp4558
Rp4559
sS'loss_108.07836'
p4560
g233
(g237
S'B\x9d\x83\xbe\xc2W\x8d?'
p4561
tp4562
Rp4563
sg2816
g233
(g237
S'B\x9d\x83\xbe\xc2W\x8d?'
p4564
tp4565
Rp4566
sS'fragment_270.09576'
p4567
g233
(g237
S'p\x81\xf4[ \xfdv?'
p4568
tp4569
Rp4570
sS'fragment_73.06466_C4H9O'
p4571
g233
(g237
S'\xacR\xd8\x18\xf0\xec\xd3?'
p4572
tp4573
Rp4574
sg1026
g233
(g237
S'p\x81\xf4[ \xfdv?'
p4575
tp4576
Rp4577
sg733
g233
(g237
S'p\x81\xf4[ \xfdv?'
p4578
tp4579
Rp4580
sg811
g233
(g237
S':\xdd\x83\xbc\xd2\xd7l?'
p4581
tp4582
Rp4583
sg815
g233
(g237
S'\xcdn@j\x89ka?'
p4584
tp4585
Rp4586
sS'loss_156.10035'
p4587
g233
(g237
S'B\x9d\x83\xbe\xc2W\x8d?'
p4588
tp4589
Rp4590
sS'fragment_55.05466_C4H7'
p4591
g233
(g237
S"\t\x91.\xf9\x11'\xd5?"
p4592
tp4593
Rp4594
sS'fragment_253.12891'
p4595
g233
(g237
S'\xf6\xb7\x1b\xd9\xa4\xb4Q?'
p4596
tp4597
Rp4598
sS'fragment_253.11748'
p4599
g233
(g237
S'\xf6\xb7\x1b\xd9\xa4\xb4Q?'
p4600
tp4601
Rp4602
sS'loss_154.08382'
p4603
g233
(g237
S'\xcdn@j\x89ka?'
p4604
tp4605
Rp4606
sS'loss_198.1107'
p4607
g233
(g237
S'\xcdn@j\x89ka?'
p4608
tp4609
Rp4610
sS'fragment_235.10634'
p4611
g233
(g237
S'\xf6\xb7\x1b\xd9\xa4\xb4Q?'
p4612
tp4613
Rp4614
ssg157
(dp4615
S'fragment_164.07055'
p4616
g233
(g237
S'\xc1s\xd9\xf7\x8a\xe4\x88?'
p4617
tp4618
Rp4619
sg1825
g233
(g237
S'\xa9\xa4\x97\x9c\xf5[\x82?'
p4620
tp4621
Rp4622
sg1665
g233
(g237
S'!\xab\xab\x82\xc0\xa6w?'
p4623
tp4624
Rp4625
sS'loss_99.05344'
p4626
g233
(g237
S'\xa26g\xd9\x12nU?'
p4627
tp4628
Rp4629
sS'fragment_132.96552'
p4630
g233
(g237
S'\xd9k\xddl\xaflr?'
p4631
tp4632
Rp4633
sS'fragment_105.03345'
p4634
g233
(g237
S'\xee\x93\x97\xc0y\xf2\xab?'
p4635
tp4636
Rp4637
sg433
g233
(g237
S'/\xb5\x03\x055\xe2_?'
p4638
tp4639
Rp4640
sg2879
g233
(g237
S'\x8f\x85\x87O\xd3/\xa0?'
p4641
tp4642
Rp4643
sS'fragment_153.07482'
p4644
g233
(g237
S'\x8297#4\xc8g?'
p4645
tp4646
Rp4647
sS'fragment_197.12845'
p4648
g233
(g237
S'\xcb\x18\xa2\x1c_I\x94?'
p4649
tp4650
Rp4651
sS'loss_61.05259'
p4652
g233
(g237
S'\x07\x1c\xac\x8f\xc4\xee\x86?'
p4653
tp4654
Rp4655
sg3715
g233
(g237
S'\xde\x19P\x98++e?'
p4656
tp4657
Rp4658
sS'fragment_119.07334'
p4659
g233
(g237
S'\xf3:\x1f\xc8D\xf5x?'
p4660
tp4661
Rp4662
sS'fragment_149.08418'
p4663
g233
(g237
S'!\xab\xab\x82\xc0\xa6w?'
p4664
tp4665
Rp4666
sS'fragment_96.08074'
p4667
g233
(g237
S'\x96Z\x06SM\x92{?'
p4668
tp4669
Rp4670
sS'fragment_180.08065_C10H14NO3'
p4671
g233
(g237
S'%Y\x1e\xae<ej?'
p4672
tp4673
Rp4674
sS'fragment_117.07032'
p4675
g233
(g237
S'\xc9x\x059E\x02m?'
p4676
tp4677
Rp4678
sg1407
g233
(g237
S'\xc4\xca\x92\r\xc9Cz?'
p4679
tp4680
Rp4681
sg1621
g233
(g237
S'\xa26g\xd9\x12nU?'
p4682
tp4683
Rp4684
sg709
g233
(g237
S'?1\x01o\x14\x05\x91?'
p4685
tp4686
Rp4687
sg4151
g233
(g237
S"\x08\xdci'+\x1eq?"
p4688
tp4689
Rp4690
sS'fragment_134.01283'
p4691
g233
(g237
S'\x0b\na#\xda}\x7f?'
p4692
tp4693
Rp4694
sS'loss_98.03665'
p4695
g233
(g237
S'\xde\x19P\x98++e?'
p4696
tp4697
Rp4698
sS'fragment_124.07522'
p4699
g233
(g237
S'{4\x0b\xe2y\xaa\x83?'
p4700
tp4701
Rp4702
sg4159
g233
(g237
S'\x92lQ\xbf7\x03\x83?'
p4703
tp4704
Rp4705
sg1453
g233
(g237
S'\x0b\na#\xda}\x7f?'
p4706
tp4707
Rp4708
sg1457
g233
(g237
S'\xc9x\x059E\x02m?'
p4709
tp4710
Rp4711
sS'loss_100.03718'
p4712
g233
(g237
S'\xa26g\xd9\x12nU?'
p4713
tp4714
Rp4715
sS'fragment_116.00233'
p4716
g233
(g237
S'\xde\x19P\x98++e?'
p4717
tp4718
Rp4719
sg3013
g233
(g237
S'%Y\x1e\xae<ej?'
p4720
tp4721
Rp4722
sS'fragment_283.13776'
p4723
g233
(g237
S'\xc9x\x059E\x02m?'
p4724
tp4725
Rp4726
sg2965
g233
(g237
S';\xfah\r#\x8eb?'
p4727
tp4728
Rp4729
sS'loss_65.04759'
p4730
g233
(g237
S'\xa26g\xd9\x12nU?'
p4731
tp4732
Rp4733
sg2975
g233
(g237
S'\xf3:\x1f\xc8D\xf5x?'
p4734
tp4735
Rp4736
sg2979
g233
(g237
S';\xfah\r#\x8eb?'
p4737
tp4738
Rp4739
sS'fragment_165.07803'
p4740
g233
(g237
S'\xb4wW\xbdx \x9c?'
p4741
tp4742
Rp4743
sg2656
g233
(g237
S'\xde\x19P\x98++e?'
p4744
tp4745
Rp4746
sS'loss_128.04723'
p4747
g233
(g237
S'l\x98\xec\xc3M\x9fo?'
p4748
tp4749
Rp4750
sg3490
g233
(g237
S"\x08\xdci'+\x1eq?"
p4751
tp4752
Rp4753
sS'fragment_91.05413'
p4754
g233
(g237
S'l\x98\xec\xc3M\x9fo?'
p4755
tp4756
Rp4757
sS'fragment_150.09231'
p4758
g233
(g237
S'\xc4\xca\x92\r\xc9Cz?'
p4759
tp4760
Rp4761
sS'fragment_133.05287'
p4762
g233
(g237
S'a\x15\xfb\x94W~\xa1?'
p4763
tp4764
Rp4765
sg348
g233
(g237
S'\x0b\na#\xda}\x7f?'
p4766
tp4767
Rp4768
sg4038
g233
(g237
S'\xd9k\xddl\xaflr?'
p4769
tp4770
Rp4771
sS'fragment_162.07573_C10H12NO2'
p4772
g233
(g237
S'\x92lQ\xbf7\x03\x83?'
p4773
tp4774
Rp4775
sg4042
g233
(g237
S'/\xb5\x03\x055\xe2_?'
p4776
tp4777
Rp4778
sg1473
g233
(g237
S'O\x1b8=<Xv?'
p4779
tp4780
Rp4781
sS'loss_114.03144'
p4782
g233
(g237
S'}\x8b\xc4\xf7\xb7\tu?'
p4783
tp4784
Rp4785
sS'loss_79.02659'
p4786
g233
(g237
S'\xe9u5\xef#\xa8Z?'
p4787
tp4788
Rp4789
sS'fragment_162.09141_C10H12NO2'
p4790
g233
(g237
S'[\xcf\xb1J;b\xb2?'
p4791
tp4792
Rp4793
sg4147
g233
(g237
S';\xfah\r#\x8eb?'
p4794
tp4795
Rp4796
sS'fragment_147.06747'
p4797
g233
(g237
S'\xde\x19P\x98++e?'
p4798
tp4799
Rp4800
sS'loss_129.1154'
p4801
g233
(g237
S'\xe9u5\xef#\xa8Z?'
p4802
tp4803
Rp4804
sS'fragment_265.12888'
p4805
g233
(g237
S'\xd7\x14$Wq\r\x81?'
p4806
tp4807
Rp4808
sS'fragment_180.10124_C10H14NO3'
p4809
g233
(g237
S'\xcb\xbeW$\xc7`\xd3?'
p4810
tp4811
Rp4812
sS'loss_62.03678'
p4813
g233
(g237
S'\x8297#4\xc8g?'
p4814
tp4815
Rp4816
sg4226
g233
(g237
S'\xf3:\x1f\xc8D\xf5x?'
p4817
tp4818
Rp4819
sS'loss_105.0541'
p4820
g233
(g237
S'\xa26g\xd9\x12nU?'
p4821
tp4822
Rp4823
sS'loss_104.04718'
p4824
g233
(g237
S'/\xb5\x03\x055\xe2_?'
p4825
tp4826
Rp4827
sS'loss_100.05231'
p4828
g233
(g237
S'/\xb5\x03\x055\xe2_?'
p4829
tp4830
Rp4831
sS'fragment_136.07599'
p4832
g233
(g237
S'\x05\xa5\xd1\xc59\xa7\x92?'
p4833
tp4834
Rp4835
sg2722
g233
(g237
S'\xe9u5\xef#\xa8Z?'
p4836
tp4837
Rp4838
sS'loss_35.03689'
p4839
g233
(g237
S'\xaa;\x93\x1a\xcd\x8b\x89?'
p4840
tp4841
Rp4842
sg3369
g233
(g237
S'\xe9u5\xef#\xa8Z?'
p4843
tp4844
Rp4845
sS'fragment_122.06027'
p4846
g233
(g237
S'\xa26g\xd9\x12nU?'
p4847
tp4848
Rp4849
sS'loss_111.06841'
p4850
g233
(g237
S'9z\xed\xddU/~?'
p4851
tp4852
Rp4853
sg4196
g233
(g237
S';\xfah\r#\x8eb?'
p4854
tp4855
Rp4856
sg831
g233
(g237
S"\x08\xdci'+\x1eq?"
p4857
tp4858
Rp4859
ssg160
(dp4860
S'loss_72.03221'
p4861
g233
(g237
S'\xb8+B[\xda\x8e_?'
p4862
tp4863
Rp4864
sS'fragment_94.05265'
p4865
g233
(g237
S'P\x9e\xce\x06\xa7\xa0c?'
p4866
tp4867
Rp4868
sS'fragment_86.00565'
p4869
g233
(g237
S'\xb8+B[\xda\x8e_?'
p4870
tp4871
Rp4872
sg2256
g233
(g237
S'35\xb4\xd4\xd7!{?'
p4873
tp4874
Rp4875
sS'fragment_230.13333'
p4876
g233
(g237
S'\xb8+B[\xda\x8e_?'
p4877
tp4878
Rp4879
sS'fragment_186.10718'
p4880
g233
(g237
S'\xe4jLm\xc0@\x94?'
p4881
tp4882
Rp4883
sS'fragment_126.0665_C5H8N3O'
p4884
g233
(g237
S'2\xd4\x8e\xba\xfcW\xd2?'
p4885
tp4886
Rp4887
sS'loss_43.98915'
p4888
g233
(g237
S'8Ev\xe9R\xf3\xa4?'
p4889
tp4890
Rp4891
sS'fragment_242.10031'
p4892
g233
(g237
S'\xd1\x1a\xe7\xa8f\xdcW?'
p4893
tp4894
Rp4895
sg3888
g233
(g237
S'P\x9e\xce\x06\xa7\xa0c?'
p4896
tp4897
Rp4898
sg2492
g233
(g237
S'\xad7W\x92T,o?'
p4899
tp4900
Rp4901
sS'loss_101.01104'
p4902
g233
(g237
S'\x11`\xc25\xc7\x82q?'
p4903
tp4904
Rp4905
sS'fragment_230.09644'
p4906
g233
(g237
S'm\xf9J\xc1t\x0e}?'
p4907
tp4908
Rp4909
sS'fragment_141.07277'
p4910
g233
(g237
S'9\xaf)\xb9\x1aSk?'
p4911
tp4912
Rp4913
sS'fragment_115.0696'
p4914
g233
(g237
S'P\x9e\xce\x06\xa7\xa0c?'
p4915
tp4916
Rp4917
sS'fragment_108.05597_C5H6N3'
p4918
g233
(g237
S'\xf7\xb3\xe2u\x99\x1c\x89?'
p4919
tp4920
Rp4921
sS'loss_144.0897'
p4922
g233
(g237
S'\xb8+B[\xda\x8e_?'
p4923
tp4924
Rp4925
sS'loss_130.0741'
p4926
g233
(g237
S'\xaa\xa6\xb5\x80#T\x92?'
p4927
tp4928
Rp4929
sS'fragment_242.15781'
p4930
g233
(g237
S'\xb8+B[\xda\x8e_?'
p4931
tp4932
Rp4933
sS'fragment_109.03967_C5H5N2O'
p4934
g233
(g237
S'\xef\x96\xaf\x14L\xe7\xc0?'
p4935
tp4936
Rp4937
sS'fragment_127.03204'
p4938
g233
(g237
S'\x17D\xeb\xe9\xd1\x13\xa8?'
p4939
tp4940
Rp4941
sg831
g233
(g237
S'1xyb6\t\x8b?'
p4942
tp4943
Rp4944
sS'loss_103.06338'
p4945
g233
(g237
S'\x85\x9d\xc9\xf6\xe4\x8b\xb8?'
p4946
tp4947
Rp4948
sg2189
g233
(g237
S'\xcc{\xa7\x1f4\xf3\x9b?'
p4949
tp4950
Rp4951
sS'loss_70.01648'
p4952
g233
(g237
S'\xc5&\xfc\xdf\xe0yg?'
p4953
tp4954
Rp4955
sS'fragment_100.02128'
p4956
g233
(g237
S'\xa8\xbd\xe1\xad\x11\xfb~?'
p4957
tp4958
Rp4959
sg2032
g233
(g237
S'\xc5&\xfc\xdf\xe0yg?'
p4960
tp4961
Rp4962
sg2606
g233
(g237
S'\xd1\x1a\xe7\xa8f\xdcW?'
p4963
tp4964
Rp4965
sg922
g233
(g237
S'9\xaf)\xb9\x1aSk?'
p4966
tp4967
Rp4968
sS'fragment_69.05759'
p4969
g233
(g237
S'N\xda\xc4\xd8\x84\xff\x8b?'
p4970
tp4971
Rp4972
sS'fragment_258.14546'
p4973
g233
(g237
S'P\x9e\xce\x06\xa7\xa0c?'
p4974
tp4975
Rp4976
sg2224
g233
(g237
S'\x83+\xb5\x9c_C\x85?'
p4977
tp4978
Rp4979
ssg163
(dp4980
g4246
g233
(g237
S'(c\x18qQ\xb1\x98?'
p4981
tp4982
Rp4983
sS'fragment_307.17496'
p4984
g233
(g237
S'\x8eVp{\xac\x1c\x9c?'
p4985
tp4986
Rp4987
sS'fragment_346.21475'
p4988
g233
(g237
S'\x1d\x1e\x8a\x86\xdd\x8ck?'
p4989
tp4990
Rp4991
sS'fragment_498.25681'
p4992
g233
(g237
S'Tk\x99\xef\xf4m|?'
p4993
tp4994
Rp4995
sS'fragment_63.02327'
p4996
g233
(g237
S'+g\x00\xd5\n\xa3s?'
p4997
tp4998
Rp4999
sS'fragment_177.05475_C10H9O3'
p5000
g233
(g237
S'\xb5t\x99\x8e\x81e\xc8?'
p5001
tp5002
Rp5003
sS'fragment_188.17606'
p5004
g233
(g237
S'{;s\x8c\x11\x81m?'
p5005
tp5006
Rp5007
sS'fragment_305.1875'
p5008
g233
(g237
S'\x92+\xb0\xa2\x12\xeeS?'
p5009
tp5010
Rp5011
sS'fragment_100.07536'
p5012
g233
(g237
S'\x91\xf47\x9eL\xea\x8a?'
p5013
tp5014
Rp5015
sS'loss_176.10859'
p5016
g233
(g237
S'\xaa\x82<\xd7\xed$\x90?'
p5017
tp5018
Rp5019
sS'fragment_314.13855'
p5020
g233
(g237
S'\xdbX\\\x92Euo?'
p5021
tp5022
Rp5023
sS'fragment_481.23514'
p5024
g233
(g237
S'\x01\xc6\xcetA\xb0e?'
p5025
tp5026
Rp5027
sS'fragment_171.1487'
p5028
g233
(g237
S'\x8a\x1e\xc9\x99%s\x89?'
p5029
tp5030
Rp5031
sg3627
g233
(g237
S'\x1d\x1e\x8a\x86\xdd\x8ck?'
p5032
tp5033
Rp5034
sS'fragment_135.0444'
p5035
g233
(g237
S'\xccI\x17\xcf\xd6\xaeq?'
p5036
tp5037
Rp5038
sg709
g233
(g237
S'C\x8b\xfch\xd9\xc7a?'
p5039
tp5040
Rp5041
sg453
g233
(g237
S'\x0c\xa1T\xba\xe2\xbe[?'
p5042
tp5043
Rp5044
sg552
g233
(g237
S'|?[\xf0\xcar\x98?'
p5045
tp5046
Rp5047
sS'fragment_117.03316_C8H5O'
p5048
g233
(g237
S'O0\x04\x03#\x8f\xbd?'
p5049
tp5050
Rp5051
sg4169
g233
(g237
S'Of\x82\xaez\xd6W?'
p5052
tp5053
Rp5054
sS'fragment_149.05998_C9H9O2'
p5055
g233
(g237
S'\xe6\x9d\xea|\xb9\x99\x9c?'
p5056
tp5057
Rp5058
sS'fragment_145.02839_C9H5O2'
p5059
g233
(g237
S'`2\x01J\x9c\x96\xc1?'
p5060
tp5061
Rp5062
sS'loss_173.14115'
p5063
g233
(g237
S'\xc9\xdb&\xc6J\xa7_?'
p5064
tp5065
Rp5066
sS'fragment_248.12782'
p5067
g233
(g237
S'\xdbX\\\x92Euo?'
p5068
tp5069
Rp5070
sS'fragment_186.05402'
p5071
g233
(g237
S'\xa2\xa8\xe5n\r\xbcc?'
p5072
tp5073
Rp5074
sS'loss_194.11521'
p5075
g233
(g237
S'\x0c\xa1T\xba\xe2\xbe[?'
p5076
tp5077
Rp5078
sS'loss_193.07267'
p5079
g233
(g237
S'\xae\xedsY\x81\xe0\x90?'
p5080
tp5081
Rp5082
sS'fragment_322.21219'
p5083
g233
(g237
S'n\xc6\r\x88\x89\x96\x83?'
p5084
tp5085
Rp5086
sS'fragment_78.04655'
p5087
g233
(g237
S'\xd4\xb9e\x92\xe4\x01\x87?'
p5088
tp5089
Rp5090
sg601
g233
(g237
S'|r\xeb\x90\xd7\x84\x86?'
p5091
tp5092
Rp5093
sS'fragment_364.22203'
p5094
g233
(g237
S'\x04f\x8aI\xbe\xf6\xa1?'
p5095
tp5096
Rp5097
sS'fragment_134.03657'
p5098
g233
(g237
S'3\xd7N\x98\x18\xf6\x88?'
p5099
tp5100
Rp5101
sS'fragment_89.03864_C9H7'
p5102
g233
(g237
S'Z\xf7k]\xca\xb7\xc2?'
p5103
tp5104
Rp5105
sS'loss_165.07878'
p5106
g233
(g237
S'Of\x82\xaez\xd6W?'
p5107
tp5108
Rp5109
sS'fragment_290.15144'
p5110
g233
(g237
S'\xccI\x17\xcf\xd6\xaeq?'
p5111
tp5112
Rp5113
sS'fragment_106.04123'
p5114
g233
(g237
S'\xbe\x00\xa1\x80\xa9\x98i?'
p5115
tp5116
Rp5117
ssg166
(dp5118
S'fragment_111.04428'
p5119
g233
(g237
S'i\x90\x1bQ\x85\x19\x84?'
p5120
tp5121
Rp5122
sS'loss_117.00575'
p5123
g233
(g237
S'\x06\xb6i\xfb\xe9/y?'
p5124
tp5125
Rp5126
sg1087
g233
(g237
S'+\x9b\xb5g\x8b\x03a?'
p5127
tp5128
Rp5129
sg3873
g233
(g237
S'_`\x9b\xb6\x9f\xfe\xa2?'
p5130
tp5131
Rp5132
sS'fragment_80.04949_C5H6N'
p5133
g233
(g237
S'!\xceC\x12\xbe\xf6\xc9?'
p5134
tp5135
Rp5136
sS'fragment_164.0346_C8H6NO3'
p5137
g233
(g237
S'\xa3\r\xdb\x81\xa2\xa5\xc4?'
p5138
tp5139
Rp5140
sg1368
g233
(g237
S'\x85J\xffb\x0eE\x88?'
p5141
tp5142
Rp5143
sS'fragment_147.06565'
p5144
g233
(g237
S'a8\xa8Z\xe6\x84w?'
p5145
tp5146
Rp5147
sS'loss_55.98954'
p5148
g233
(g237
S'\xc2?eL\x08[[?'
p5149
tp5150
Rp5151
sg3088
g233
(g237
S'\x03\xde\\W\xa3\xa9\xa4?'
p5152
tp5153
Rp5154
sS'fragment_182.10562'
p5155
g233
(g237
S'a8\xa8Z\xe6\x84w?'
p5156
tp5157
Rp5158
sS'loss_86.00034'
p5159
g233
(g237
S'\xa8[\x1e\xf8\xa6T\xa6?'
p5160
tp5161
Rp5162
sg2299
g233
(g237
S'\xc2?eL\x08[[?'
p5163
tp5164
Rp5165
sS'loss_71.03691'
p5166
g233
(g237
S'\xf5.\xae\xdd\xf40~?'
p5167
tp5168
Rp5169
sS'fragment_53.03888_C4H5'
p5170
g233
(g237
S'\x04\xdd$\xe4\x13\xf9\x91?'
p5171
tp5172
Rp5173
sS'loss_58.0416'
p5174
g233
(g237
S'\xc2?eL\x08[[?'
p5175
tp5176
Rp5177
sS'fragment_65.03878_C5H5'
p5178
g233
(g237
S'.t\xfa~a:\x98?'
p5179
tp5180
Rp5181
sS'fragment_182.04472'
p5182
g233
(g237
S'\x0e\x0e\xdd\xf1\x88\xc4\x85?'
p5183
tp5184
Rp5185
sS'loss_95.03696'
p5186
g233
(g237
S'\x0e\x10M\xd8\xa7%\x9b?'
p5187
tp5188
Rp5189
sS'loss_58.00534'
p5190
g233
(g237
S'+\x9b\xb5g\x8b\x03a?'
p5191
tp5192
Rp5193
sS'loss_99.03188'
p5194
g233
(g237
S'\x08\x8d>,\xa1\x05k?'
p5195
tp5196
Rp5197
sg3903
g233
(g237
S'\xe6N\x14\xfb\x81\t\xa4?'
p5198
tp5199
Rp5200
sS'fragment_182.08217'
p5201
g233
(g237
S'\xf0\x81<\xef\x156\xad?'
p5202
tp5203
Rp5204
sg4782
g233
(g237
S'0I_\xc9\xf9\xaeT?'
p5205
tp5206
Rp5207
sg1074
g233
(g237
S'\xf5.\xae\xdd\xf40~?'
p5208
tp5209
Rp5210
sS'loss_18.04478'
p5211
g233
(g237
S'Q\x83\xa9-\xdb\xe8\xa0?'
p5212
tp5213
Rp5214
sS'fragment_124.03979'
p5215
g233
(g237
S'\xbe\x91\xbb\xea\x99\xafg?'
p5216
tp5217
Rp5218
sS'fragment_136.03971_C7H6NO2'
p5219
g233
(g237
S'\xd8q"r\xbd\xf3\xa1?'
p5220
tp5221
Rp5222
sS'loss_113.99561'
p5223
g233
(g237
S'0I_\xc9\xf9\xaeT?'
p5224
tp5225
Rp5226
sg3797
g233
(g237
S'u\x968\xa9\x92Yd?'
p5227
tp5228
Rp5229
sS'loss_46.04168'
p5230
g233
(g237
S'Q\xb1\xec<\xf1\x85|?'
p5231
tp5232
Rp5233
sg4846
g233
(g237
S'\xbe\x91\xbb\xea\x99\xafg?'
p5234
tp5235
Rp5236
sg1437
g233
(g237
S'\xbc\xba\xe6\xb9\xe2\xd9u?'
p5237
tp5238
Rp5239
ssg169
(dp5240
S'fragment_70.06514_C4H8N'
p5241
g233
(g237
S'\xb9\xfd\xb2Q\x19V\xef?'
p5242
tp5243
Rp5244
ssg172
(dp5245
S'fragment_104.10738_C5H14NO'
p5246
g233
(g237
S'_y0\x19\xd0\x82\xde?'
p5247
tp5248
Rp5249
sS'fragment_537.19464'
p5250
g233
(g237
S'\x87(\xa3\xacC\x89\\?'
p5251
tp5252
Rp5253
sS'fragment_442.14777'
p5254
g233
(g237
S'\xd2\x8b\xd4>a\x03Y?'
p5255
tp5256
Rp5257
sS'fragment_125.00052'
p5258
g233
(g237
S'VP\x03\x07\xf7\xf2\x9f?'
p5259
tp5260
Rp5261
sS'fragment_221.01907'
p5262
g233
(g237
S'\x00\x1b\xbc:\x05\x11\xae?'
p5263
tp5264
Rp5265
sg1010
g233
(g237
S'\x1d\xef\x05\xd1~}U?'
p5266
tp5267
Rp5268
sS'fragment_172.95332'
p5269
g233
(g237
S'\x06(\x19G\xae\x82z?'
p5270
tp5271
Rp5272
sS'fragment_216.97998'
p5273
g233
(g237
S'oG\x08\xd0p\x95r?'
p5274
tp5275
Rp5276
sS'fragment_184.06505'
p5277
g233
(g237
S'm\xcd)\xff\x1bM\x84?'
p5278
tp5279
Rp5280
sS'fragment_190.96327'
p5281
g233
(g237
S'\x87(\xa3\xacC\x89\\?'
p5282
tp5283
Rp5284
sS'fragment_71.07325'
p5285
g233
(g237
S'\x0e\xec\xc3\x8c\xd6`\xa4?'
p5286
tp5287
Rp5288
sS'fragment_60.08102_C3H10N'
p5289
g233
(g237
S'q\xb6\xb1*r\x86\xac?'
p5290
tp5291
Rp5292
sS'fragment_184.07439'
p5293
g233
(g237
S'oG\x08\xd0p\x95r?'
p5294
tp5295
Rp5296
sS'loss_178.09613'
p5297
g233
(g237
S'\x9e\xe28\r\x93\x07`?'
p5298
tp5299
Rp5300
sg823
g233
(g237
S'q/\xff!0<\xb1?'
p5301
tp5302
Rp5303
sS'fragment_198.96863'
p5304
g233
(g237
S'\xf6<c\xa2\xda9u?'
p5305
tp5306
Rp5307
sg863
g233
(g237
S'hR7c\x9c\xf7Q?'
p5308
tp5309
Rp5310
sS'fragment_136.93085'
p5311
g233
(g237
S'\xf90 D\x84\xcaa?'
p5312
tp5313
Rp5314
sS'fragment_280.09383'
p5315
g233
(g237
S']\x9a\xcf{\xca\x88\xab?'
p5316
tp5317
Rp5318
sS'fragment_58.06552'
p5319
g233
(g237
S'\xce\xa3Z\xfb\r\xe2o?'
p5320
tp5321
Rp5322
sS'fragment_420.16344'
p5323
g233
(g237
S'\x08\x1c\xd6\xe8W\x13g?'
p5324
tp5325
Rp5326
sS'fragment_383.07324'
p5327
g233
(g237
S'"wO\x96\x7fO\x8f?'
p5328
tp5329
Rp5330
sg922
g233
(g237
S'~2\xbetD\xdew?'
p5331
tp5332
Rp5333
sS'fragment_154.94221'
p5334
g233
(g237
S'\x08\x1c\xd6\xe8W\x13g?'
p5335
tp5336
Rp5337
sS'loss_193.99432'
p5338
g233
(g237
S'm\xcd)\xff\x1bM\x84?'
p5339
tp5340
Rp5341
sS'fragment_258.10965'
p5342
g233
(g237
S'Jq\x96\xa3\xa1\x0e\xa3?'
p5343
tp5344
Rp5345
ssg175
(dp5346
S'loss_47.03699'
p5347
g233
(g237
S'U^Cy\r\xe5m?'
p5348
tp5349
Rp5350
sS'loss_42.01062_CH2O2'
p5351
g233
(g237
S'T^Cy\r}\xe7?'
p5352
tp5353
Rp5354
sg5319
g233
(g237
S'\xf5\x1a\xcak(\xafQ?'
p5355
tp5356
Rp5357
sS'fragment_128.07165'
p5358
g233
(g237
S'8\x94\xd7P^Ca?'
p5359
tp5360
Rp5361
sS'loss_31.04204'
p5362
g233
(g237
S'8\x94\xd7P^Ca?'
p5363
tp5364
Rp5365
sS'fragment_134.06003'
p5366
g233
(g237
S'\xf5\x1a\xcak(\xafQ?'
p5367
tp5368
Rp5369
sg922
g233
(g237
S'Gy\r\xe55\x94{?'
p5370
tp5371
Rp5372
sS'fragment_90.06346'
p5373
g233
(g237
S'\xf5\x1a\xcak(\xafQ?'
p5374
tp5375
Rp5376
sg1860
g233
(g237
S'\xf5\x1a\xcak(\xafQ?'
p5377
tp5378
Rp5379
sS'fragment_82.03672'
p5380
g233
(g237
S'\xf6\x1a\xcak(\xafi?'
p5381
tp5382
Rp5383
sg621
g233
(g237
S'Gy\r\xe55\x94{?'
p5384
tp5385
Rp5386
sg1884
g233
(g237
S'8\x94\xd7P^Ca?'
p5387
tp5388
Rp5389
ssg178
(dp5390
S'fragment_83.08555'
p5391
g233
(g237
S"'FjmW\xf1{?"
p5392
tp5393
Rp5394
sS'fragment_123.11717'
p5395
g233
(g237
S'*\xd7\x1d/\xb6\x04o?'
p5396
tp5397
Rp5398
sg1422
g233
(g237
S'\xed\x83d@=Sy?'
p5399
tp5400
Rp5401
sS'fragment_93.06981_C7H9'
p5402
g233
(g237
S'\xc9fi\xac,\x00\xb7?'
p5403
tp5404
Rp5405
sS'fragment_133.10087'
p5406
g233
(g237
S'\x98\xfa\xec\xf6[CZ?'
p5407
tp5408
Rp5409
sS'fragment_105.07019'
p5410
g233
(g237
S'\xb1\xa3\xa2T!3\x99?'
p5411
tp5412
Rp5413
sS'fragment_95.08541'
p5414
g233
(g237
S'\x80\x9fj\x87h\xeb\xb3?'
p5415
tp5416
Rp5417
sS'fragment_109.10127'
p5418
g233
(g237
S'\x96\x92\xa8\x0eD\xce\x86?'
p5419
tp5420
Rp5421
sS'fragment_279.23344'
p5422
g233
(g237
S'\xe7{\x0e\xb7\xc5\th?'
p5423
tp5424
Rp5425
sg3627
g233
(g237
S'\x1a\xdd\xd7QQ\xaaP?'
p5426
tp5427
Rp5428
sS'fragment_119.08567'
p5429
g233
(g237
S'.\xa7\xa6\xff\xe5\xee\x85?'
p5430
tp5431
Rp5432
sg709
g233
(g237
S'\x01s\xf7\x02]\x91\x8d?'
p5433
tp5434
Rp5435
sS'fragment_331.20673'
p5436
g233
(g237
S'T\x9f\xdd~kHS?'
p5437
tp5438
Rp5439
sg737
g233
(g237
S'\xee*~7&\x9f`?'
p5440
tp5441
Rp5442
sS'loss_192.13567'
p5443
g233
(g237
S'(\xed\x83d@=c?'
p5444
tp5445
Rp5446
sS'fragment_277.21736_C18H29O2'
p5447
g233
(g237
S'\xa8\xda!\xdaz\xc0\x83?'
p5448
tp5449
Rp5450
sg324
g233
(g237
S'\xec\x01\x0f^\xdf\x00\xbf?'
p5451
tp5452
Rp5453
sS'fragment_149.13253_C11H17'
p5454
g233
(g237
S'\xfa+\xccj\x14q\x88?'
p5455
tp5456
Rp5457
sg4754
g233
(g237
S'\xdb\xae\xe2wc\xf2\xb3?'
p5458
tp5459
Rp5460
sS'fragment_111.08096'
p5461
g233
(g237
S'\xee*~7&\x9f`?'
p5462
tp5463
Rp5464
sS'fragment_97.06466'
p5465
g233
(g237
S'\x1a\xdd\xd7QQ\xaaP?'
p5466
tp5467
Rp5468
sS'fragment_121.10155'
p5469
g233
(g237
S'\x9f6et_G\x85?'
p5470
tp5471
Rp5472
sS'fragment_147.11818'
p5473
g233
(g237
S'\x1a\xdd\xd7QQ\xaaP?'
p5474
tp5475
Rp5476
sS'fragment_55.05466_C4H7'
p5477
g233
(g237
S'k\xbb\x8a\xdf\x8d\xc9\xb5?'
p5478
tp5479
Rp5480
sS'fragment_173.13233'
p5481
g233
(g237
S'\x1a\xdd\xd7QQ\xaaP?'
p5482
tp5483
Rp5484
sS'fragment_131.08638'
p5485
g233
(g237
S'/\x0f\xeb\xe7\xfdcY?'
p5486
tp5487
Rp5488
sS'fragment_107.0856'
p5489
g233
(g237
S'\xf5\xfe\xb1\xcc\x11.\xa4?'
p5490
tp5491
Rp5492
sS'fragment_67.05454_C5H7'
p5493
g233
(g237
S'\x84\xbd&Fjm\xc6?'
p5494
tp5495
Rp5496
sS'fragment_135.11735'
p5497
g233
(g237
S'\xb8R\x12\xd5\x81\xc8i?'
p5498
tp5499
Rp5500
sS'fragment_81.07001_C6H9'
p5501
g233
(g237
S'\xcd\x9e6et_\xc6?'
p5502
tp5503
Rp5504
ssg181
(dp5505
S'fragment_293.13733'
p5506
g233
(g237
S'\xfa\xe5\r6\x89\xa2\x93?'
p5507
tp5508
Rp5509
sS'fragment_289.17908'
p5510
g233
(g237
S'\x17 P\xea`\x02\x8d?'
p5511
tp5512
Rp5513
sg5395
g233
(g237
S'\x1f\x9b"\xbay\xae\x83?'
p5514
tp5515
Rp5516
sg3968
g233
(g237
S'\xeb\xe8^]\x0e\x8c\x85?'
p5517
tp5518
Rp5519
sg5410
g233
(g237
S'\x7fWl=\x0b\x7f\x9c?'
p5520
tp5521
Rp5522
sS'fragment_325.17874'
p5523
g233
(g237
S'TM\xe6\x16\xe5\xd0\x81?'
p5524
tp5525
Rp5526
sS'fragment_307.18982'
p5527
g233
(g237
S'\xabZ\xe8*\xe8n\x96?'
p5528
tp5529
Rp5530
sg5418
g233
(g237
S'\x83\xde\xadp\x90\xd7r?'
p5531
tp5532
Rp5533
sS'fragment_175.07611'
p5534
g233
(g237
S':t\x84h\xaf\xbf\x82?'
p5535
tp5536
Rp5537
sS'loss_53.04788'
p5538
g233
(g237
S'TM\xe6\x16\xe5\xd0\x81?'
p5539
tp5540
Rp5541
sS'fragment_259.13175'
p5542
g233
(g237
S';\xee\xcc6y\xe9\xa2?'
p5543
tp5544
Rp5545
sS'loss_85.08945'
p5546
g233
(g237
S'\xb4\t0\x9av\xa1\x9a?'
p5547
tp5548
Rp5549
sg5429
g233
(g237
S'\xd7]d\x18\xc5^\x90?'
p5550
tp5551
Rp5552
sS'fragment_181.04945'
p5553
g233
(g237
S'\x81\x84\xd7\xa37G\x89?'
p5554
tp5555
Rp5556
sg3347
g233
(g237
S'yO\xd8\x02s>\xa5?'
p5557
tp5558
Rp5559
sS'loss_175.15717'
p5560
g233
(g237
S'Iq3A*\xd6\x90?'
p5561
tp5562
Rp5563
sS'fragment_275.1278'
p5564
g233
(g237
S'S {\xb0\xb8\x08\x95?'
p5565
tp5566
Rp5567
sg2086
g233
(g237
S'\xa5\xec\x0e\xc0\x8a\xf1\xa5?'
p5568
tp5569
Rp5570
sS'fragment_287.12852'
p5571
g233
(g237
S'\x82de\xa2\xc6\xad\xa2?'
p5572
tp5573
Rp5574
sg324
g233
(g237
S'\xfa\xe5\r6\x89\xa2\x93?'
p5575
tp5576
Rp5577
sS'fragment_343.19133'
p5578
g233
(g237
S'\x82de\xa2\xc6\xad\xa2?'
p5579
tp5580
Rp5581
sg799
g233
(g237
S'/\x98\xd1\x92\xf4\xc4\x91?'
p5582
tp5583
Rp5584
sg1291
g233
(g237
S'\xabZ\xe8*\xe8n\x96?'
p5585
tp5586
Rp5587
sg791
g233
(g237
S'\x1f\x9b"\xbay\xae\x83?'
p5588
tp5589
Rp5590
sS'fragment_191.07095'
p5591
g233
(g237
S'\x05\xc2\xc0\x0bD\x9d\x84?'
p5592
tp5593
Rp5594
sg348
g233
(g237
S'\xb66\x9b\x00\xa3i\x87?'
p5595
tp5596
Rp5597
sS'fragment_203.07149'
p5598
g233
(g237
S'\xe2m\x8c\x8d\xf5\xdf\x8e?'
p5599
tp5600
Rp5601
sS'fragment_149.05998'
p5602
g233
(g237
S'\xc8\x94*\xdf\xbf\xce\x8f?'
p5603
tp5604
Rp5605
sg4338
g233
(g237
S'\x9b]9RmX\x88?'
p5606
tp5607
Rp5608
sS'loss_198.08896'
p5609
g233
(g237
S'\x17 P\xea`\x02\x8d?'
p5610
tp5611
Rp5612
sS'loss_119.09448'
p5613
g233
(g237
S'!\xaf%X~\x9b\xaa?'
p5614
tp5615
Rp5616
sS'fragment_217.12256'
p5617
g233
(g237
S'o&H\xc5\x1a\xe2\x80?'
p5618
tp5619
Rp5620
sg1841
g233
(g237
S'\x17 P\xea`\x02\x8d?'
p5621
tp5622
Rp5623
sS'fragment_277.14325'
p5624
g233
(g237
S'2\xf9\xb1\x98\x96\x13\x8c?'
p5625
tp5626
Rp5627
sS'fragment_57.06999'
p5628
g233
(g237
S'\xb66\x9b\x00\xa3i\x87?'
p5629
tp5630
Rp5631
sS'fragment_361.20073'
p5632
g233
(g237
S'\xa2\xab\xa0\xbbY<\x92?'
p5633
tp5634
Rp5635
sS'fragment_183.02962'
p5636
g233
(g237
S'\xeb\xe8^]\x0e\x8c\x85?'
p5637
tp5638
Rp5639
sg4391
g233
(g237
S'2\xd9?\x97%z\xa5?'
p5640
tp5641
Rp5642
sS'fragment_221.08129'
p5643
g233
(g237
S"'\x1d\xff\xc2\xdb\x18\x9b?"
p5644
tp5645
Rp5646
sS'loss_103.09952'
p5647
g233
(g237
S'\xa2\xdf\x15[\xcf\xc2\x9f?'
p5648
tp5649
Rp5650
ssg184
(dp5651
S'fragment_56.04977_C3H6N'
p5652
g233
(g237
S'\x86L\x00\xa8\xd0\x10\xba?'
p5653
tp5654
Rp5655
sg863
g233
(g237
S'\xeb\x9e\xe1N+\x13U?'
p5656
tp5657
Rp5658
sS'fragment_84.0442_C4H6NO'
p5659
g233
(g237
S'P\xf5\x89\xdc&P\xeb?'
p5660
tp5661
Rp5662
ssg187
(dp5663
S'fragment_135.01167'
p5664
g233
(g237
S'\x85i\xafI\xe6eU?'
p5665
tp5666
Rp5667
sg986
g233
(g237
S'\x87\xe8oi\xd6mq?'
p5668
tp5669
Rp5670
sS'fragment_211.10854'
p5671
g233
(g237
S'\x8d\xa2\xfc\xf0\x81\x92\xa2?'
p5672
tp5673
Rp5674
sS'fragment_170.0813'
p5675
g233
(g237
S'j\x02\xbc\x0bH\xcb\x84?'
p5676
tp5677
Rp5678
sS'fragment_124.07641'
p5679
g233
(g237
S'x\xa7M\xe4\xe6Tx?'
p5680
tp5681
Rp5682
sS'fragment_152.07028_C8H10NO2'
p5683
g233
(g237
S"\xc2\x9e\xb0'\xec\t\xd3?"
p5684
tp5685
Rp5686
sS'fragment_68.04924'
p5687
g233
(g237
S'\xa42\x93\x1a\x14\x81h?'
p5688
tp5689
Rp5690
sS'fragment_109.05264'
p5691
g233
(g237
S'\x18b\xc9nd\xac\x9e?'
p5692
tp5693
Rp5694
sg2378
g233
(g237
S'\x85i\xafI\xe6eU?'
p5695
tp5696
Rp5697
sS'fragment_169.09672'
p5698
g233
(g237
S'\x00\xc8\xde\xa6^\xe1t?'
p5699
tp5700
Rp5701
sS'fragment_152.03477_C8H10NO2'
p5702
g233
(g237
S'\x85i\xafI\xe6eU?'
p5703
tp5704
Rp5705
sg4699
g233
(g237
S'\xa42\x93\x1a\x14\x81h?'
p5706
tp5707
Rp5708
sS'fragment_193.09868'
p5709
g233
(g237
S'Y,\xb2ia\x01\x90?'
p5710
tp5711
Rp5712
sg1453
g233
(g237
S'\xf3S\xc5\x97\x07\x98\x92?'
p5713
tp5714
Rp5715
sg3471
g233
(g237
S'v(\x8d\xc4\xf6L\\?'
p5716
tp5717
Rp5718
sg1473
g233
(g237
S'\xb3s\xb5\x9f\x03\x9aa?'
p5719
tp5720
Rp5721
sg3013
g233
(g237
S'\xe2\xe1*I\xd0>\x88?'
p5722
tp5723
Rp5724
sS'fragment_151.04713'
p5725
g233
(g237
S'&rs*\x0c\x85\x86?'
p5726
tp5727
Rp5728
sg316
g233
(g237
S'\x85i\xafI\xe6eU?'
p5729
tp5730
Rp5731
sg2975
g233
(g237
S'm\x16dH/\x84\x9c?'
p5732
tp5733
Rp5734
sg2090
g233
(g237
S'\x00\xc8\xde\xa6^\xe1t?'
p5735
tp5736
Rp5737
sg4667
g233
(g237
S'x\xa7M\xe4\xe6Tx?'
p5738
tp5739
Rp5740
sg4762
g233
(g237
S'\x96\xf1p\x95$ho?'
p5741
tp5742
Rp5743
sS'fragment_110.05978'
p5744
g233
(g237
S'\xf1"M\xce\xbfW\x81?'
p5745
tp5746
Rp5747
sS'fragment_107.04983'
p5748
g233
(g237
S'\x85i\xafI\xe6eU?'
p5749
tp5750
Rp5751
sS'fragment_134.06003_C8H8NO'
p5752
g233
(g237
S'XS\xd6\x945e\xcd?'
p5753
tp5754
Rp5755
sg5166
g233
(g237
S'\xae\xf6s@3\x82}?'
p5756
tp5757
Rp5758
sS'fragment_81.05752'
p5759
g233
(g237
S'\xa42\x93\x1a\x14\x81h?'
p5760
tp5761
Rp5762
sS'loss_97.05272'
p5763
g233
(g237
S'\x85i\xafI\xe6eU?'
p5764
tp5765
Rp5766
sg4077
g233
(g237
S'\x85i\xafI\xe6eU?'
p5767
tp5768
Rp5769
sg324
g233
(g237
S'\xe4\x12\xa3\x12\x18\x7f\x99?'
p5770
tp5771
Rp5772
sg3854
g233
(g237
S'\xf2\x86\xbc!o\xc8{?'
p5773
tp5774
Rp5775
sg4846
g233
(g237
S'\xd0\xda\xa8\xdd\xa14\x82?'
p5776
tp5777
Rp5778
sg1437
g233
(g237
S'\x87\xe8oi\xd6mq?'
p5779
tp5780
Rp5781
ssg190
(dp5782
S'loss_63.03191_CH5NO2'
p5783
g233
(g237
S'\xe6\xab\xfdJ\xb8,\xe7?'
p5784
tp5785
Rp5786
sS'fragment_353.20422'
p5787
g233
(g237
S'\xfac_\xf9r\xd1|?'
p5788
tp5789
Rp5790
sS'fragment_120.08156'
p5791
g233
(g237
S'\x9a\x04\xa7\xc8\xe2Cs?'
p5792
tp5793
Rp5794
sS'fragment_323.19641'
p5795
g233
(g237
S'p\rc\xb1\x11\xb9\xa3?'
p5796
tp5797
Rp5798
sS'fragment_371.21719'
p5799
g233
(g237
S'\x8a\x1e~\x01\x0bi~?'
p5800
tp5801
Rp5802
sg3682
g233
(g237
S',\xd6I\xfe)\xbeS?'
p5803
tp5804
Rp5805
sS'fragment_123.96388'
p5806
g233
(g237
S'k\xc0\xc4\x1e\x8a\x1cZ?'
p5807
tp5808
Rp5809
sg815
g233
(g237
S'J4\x03\xe1\xaa\nx?'
p5810
tp5811
Rp5812
sg799
g233
(g237
S'z\x8fi\xb8\xb2\x14p?'
p5813
tp5814
Rp5815
sS'loss_91.0268_C2H5NO3'
p5816
g233
(g237
S'\x19\xe9\xc0\x1d\x97\xe9\x99?'
p5817
tp5818
Rp5819
ssg193
(dp5820
g4616
g233
(g237
S'~:H\x15"\xf8\x9a?'
p5821
tp5822
Rp5823
sS'fragment_81.03334_C5H5O'
p5824
g233
(g237
S'\xeb&L+\x01\xa3\xa2?'
p5825
tp5826
Rp5827
sg1665
g233
(g237
S'&\xcb\xac\x90\x1d4\xa6?'
p5828
tp5829
Rp5830
sS'fragment_164.09266'
p5831
g233
(g237
S'\xd5\x13aK\xfc\xdc\x90?'
p5832
tp5833
Rp5834
sS'fragment_136.04591'
p5835
g233
(g237
S'C\x96\xe7\xaf\x05g\x97?'
p5836
tp5837
Rp5838
sS'fragment_118.03518'
p5839
g233
(g237
S'\x95\xa9~8K4\x97?'
p5840
tp5841
Rp5842
sg674
g233
(g237
S'uI\xe3\xdep@\x84?'
p5843
tp5844
Rp5845
sg1900
g233
(g237
S'j\xae\xd2H\xc3\xc7\x99?'
p5846
tp5847
Rp5848
sg1621
g233
(g237
S'\xbd\x96?\x01\x87u\x83?'
p5849
tp5850
Rp5851
sg3142
g233
(g237
S'\xe9\xe6\x1d}\xda\x02`?'
p5852
tp5853
Rp5854
sg887
g233
(g237
S'?\xba?\x10\x94\xb0\xa7?'
p5855
tp5856
Rp5857
sS'fragment_100.02407'
p5858
g233
(g237
S'd\x84\x11\xd4\xdeEv?'
p5859
tp5860
Rp5861
sg2927
g233
(g237
S'\xa9|;j)Zf?'
p5862
tp5863
Rp5864
sg1453
g233
(g237
S'y:\x8f\\\x87w\x90?'
p5865
tp5866
Rp5867
sS'loss_84.04274'
p5868
g233
(g237
S'\x95~Th\xc9\x14\x81?'
p5869
tp5870
Rp5871
sg4110
g233
(g237
S'{,]\xee\xd5\xcc\x89?'
p5872
tp5873
Rp5874
sS'fragment_129.05464'
p5875
g233
(g237
S'h\xcb\x11\xf2\xf8\xbb\x9e?'
p5876
tp5877
Rp5878
sS'loss_108.0422'
p5879
g233
(g237
S'9\xd0\xacI\xd6\xce\x96?'
p5880
tp5881
Rp5882
sS'loss_77.04757'
p5883
g233
(g237
S'\x05\xe4\x9b#\x9d\xaa\x82?'
p5884
tp5885
Rp5886
sg2544
g233
(g237
S'\xfb\x01D(p<z?'
p5887
tp5888
Rp5889
sS'fragment_83.04894_C3H7O'
p5890
g233
(g237
S'\xfaH\x8b\x8d\xef1\x98?'
p5891
tp5892
Rp5893
sS'fragment_74.02353'
p5894
g233
(g237
S'\x1fS\x8b\xff`g\x89?'
p5895
tp5896
Rp5897
sg803
g233
(g237
S'v^\xe7\xbc\x15\xc1\xa0?'
p5898
tp5899
Rp5900
sS'fragment_101.05974'
p5901
g233
(g237
S'\xe1`\x11\xc5\xd1\n\xa2?'
p5902
tp5903
Rp5904
sg5744
g233
(g237
S'\xf3e\x11~\x8a\xa5\x92?'
p5905
tp5906
Rp5907
sS'fragment_141.05016'
p5908
g233
(g237
S'\xd3\xe9X\x8f\xb2\xdbw?'
p5909
tp5910
Rp5911
sg851
g233
(g237
S"\xf1\x82P'\xc0\x99\x97?"
p5912
tp5913
Rp5914
sg5012
g233
(g237
S'\x8a\x87\xf8\x8e\xf7%\xac?'
p5915
tp5916
Rp5917
sg867
g233
(g237
S'uI\xe3\xdep@\x84?'
p5918
tp5919
Rp5920
sg871
g233
(g237
S'\xf3\x02\xad\x83\r\xda\\?'
p5921
tp5922
Rp5923
sS'fragment_86.03133'
p5924
g233
(g237
S'd\x84\x11\xd4\xdeEv?'
p5925
tp5926
Rp5927
sg4839
g233
(g237
S'A\x88\xfc\x88\xb9;\x86?'
p5928
tp5929
Rp5930
sS'fragment_86.03207'
p5931
g233
(g237
S'i\x12YWx\xb1l?'
p5932
tp5933
Rp5934
sS'loss_81.0427'
p5935
g233
(g237
S'\xff\x1d\x1av\x08\x93\x8c?'
p5936
tp5937
Rp5938
sS'fragment_146.08111_C6H12NO3'
p5939
g233
(g237
S'\xb4\x80\xa7\x9dt\xd5\xc4?'
p5940
tp5941
Rp5942
sg922
g233
(g237
S'\xd9\x1a3\xbb\xef\xb2\xa6?'
p5943
tp5944
Rp5945
sS'loss_83.05841'
p5946
g233
(g237
S'\x07\xf2\x86J\xe9\xd5\x93?'
p5947
tp5948
Rp5949
sS'fragment_128.07037_C6H10NO2'
p5950
g233
(g237
S'\xc3\xab\xfc\x97\xc6v\xaa?'
p5951
tp5952
Rp5953
sg1449
g233
(g237
S'\xbd\x96?\x01\x87u\x83?'
p5954
tp5955
Rp5956
ssg196
(dp5957
g4861
g233
(g237
S'\xe9lW \x1e8X?'
p5958
tp5959
Rp5960
sS'fragment_296.09674'
p5961
g233
(g237
S's\xa0\xe9lW ^?'
p5962
tp5963
Rp5964
sS'fragment_107.0353'
p5965
g233
(g237
S's\xa0\xe9lW ^?'
p5966
tp5967
Rp5968
sS'loss_175.0595'
p5969
g233
(g237
S'\xff\xe9\xbd\\H\x04b?'
p5970
tp5971
Rp5972
sg4952
g233
(g237
S'`9\xc5\xd3\xe4OR?'
p5973
tp5974
Rp5975
sS'fragment_153.04074_C5H5N4O2'
p5976
g233
(g237
S',\xe2;\x1f+(\xc0?'
p5977
tp5978
Rp5979
sg2766
g233
(g237
S'\xba\x9b\xa9\xf5#k\x9f?'
p5980
tp5981
Rp5982
sS'fragment_109.05053'
p5983
g233
(g237
S'\xe9lW \x1e8X?'
p5984
tp5985
Rp5986
sS'fragment_55.02948_C2H3N2'
p5987
g233
(g237
S'\x06(\xe6\xd9\x8b\x0e\x81?'
p5988
tp5989
Rp5990
sS'fragment_109.05152'
p5991
g233
(g237
S's\xa0\xe9lW ^?'
p5992
tp5993
Rp5994
sS'loss_168.06319'
p5995
g233
(g237
S's\xa0\xe9lW ^?'
p5996
tp5997
Rp5998
sS'fragment_82.04025'
p5999
g233
(g237
S'\x13Q\xe2\xf5\xba\xd4m?'
p6000
tp6001
Rp6002
sS'fragment_152.05609_C5H6N5O'
p6003
g233
(g237
S':\x0b8;Z\xee\xd4?'
p6004
tp6005
Rp6006
sS'fragment_194.0667'
p6007
g233
(g237
S'\x14\\\x83\xc7\x96\xd2t?'
p6008
tp6009
Rp6010
sg2939
g233
(g237
S'\xa8\xf7r!\x11H\x90?'
p6011
tp6012
Rp6013
sS'fragment_314.11224'
p6014
g233
(g237
S'\xa8\xf7r!\x11H\x90?'
p6015
tp6016
Rp6017
sg2514
g233
(g237
S'\xff\xe9\xbd\\H\x04b?'
p6018
tp6019
Rp6020
sS'fragment_128.04551'
p6021
g233
(g237
S'\x17{\x17\x86\xb8W\x94?'
p6022
tp6023
Rp6024
sS'fragment_172.05943'
p6025
g233
(g237
S'\x9f\x8f\x15\x14\xd0\xbaz?'
p6026
tp6027
Rp6028
sS'fragment_121.051'
p6029
g233
(g237
S's\xa0\xe9lW ^?'
p6030
tp6031
Rp6032
sS'loss_157.08486'
p6033
g233
(g237
S'1\xcf^t\x88Xs?'
p6034
tp6035
Rp6036
sS'loss_151.04878'
p6037
g233
(g237
S'\xe6\x1f\xf0d\x1bG\xa7?'
p6038
tp6039
Rp6040
sS'loss_158.06888'
p6041
g233
(g237
S'OB:!z\xdeq?'
p6042
tp6043
Rp6044
sg3024
g233
(g237
S'\x89\x1dP\xa9\x81\xecg?'
p6045
tp6046
Rp6047
sg4471
g233
(g237
S'\xff\xe9\xbd\\H\x04b?'
p6048
tp6049
Rp6050
sS'fragment_72.04466'
p6051
g233
(g237
S's\xa0\xe9lW ^?'
p6052
tp6053
Rp6054
sS'fragment_80.02432'
p6055
g233
(g237
S's\xa0\xe9lW ^?'
p6056
tp6057
Rp6058
sS'fragment_135.02953_C5H3N4O'
p6059
g233
(g237
S'\xa2\xe7\x1d\xa1\xae\xa9\xa2?'
p6060
tp6061
Rp6062
sS'fragment_134.04671'
p6063
g233
(g237
S'\xe9lW \x1e8X?'
p6064
tp6065
Rp6066
sS'fragment_110.03458_C4H4N3O'
p6067
g233
(g237
S'!\x06\xa7\xbe\xfeR\xa4?'
p6068
tp6069
Rp6070
sS'fragment_278.09061'
p6071
g233
(g237
S's\xa0\xe9lW ^?'
p6072
tp6073
Rp6074
sg3240
g233
(g237
S'P\x9e\xe0\x1a<\xb6\x94?'
p6075
tp6076
Rp6077
sg2537
g233
(g237
S'\xe9lW \x1e8X?'
p6078
tp6079
Rp6080
sS'fragment_164.05666'
p6081
g233
(g237
S's\xa0\xe9lW ^?'
p6082
tp6083
Rp6084
sS'loss_115.08251'
p6085
g233
(g237
S'Z\xfb\x9cV\xa1E\x83?'
p6086
tp6087
Rp6088
sg613
g233
(g237
S'`9\xc5\xd3\xe4OR?'
p6089
tp6090
Rp6091
sS'fragment_176.05566'
p6092
g233
(g237
S'\x06(\xe6\xd9\x8b\x0e\x81?'
p6093
tp6094
Rp6095
sS'loss_168.07692'
p6096
g233
(g237
S'\x89\x1dP\xa9\x81\xecg?'
p6097
tp6098
Rp6099
sg5079
g233
(g237
S'\x13Q\xe2\xf5\xba\xd4m?'
p6100
tp6101
Rp6102
sS'loss_115.06303'
p6103
g233
(g237
S'v\xd7\x0e\x85\xa2\x15\xb1?'
p6104
tp6105
Rp6106
ssg199
(dp6107
g773
g233
(g237
S'\xf6\xca\xe8\x97\xd0b\x90?'
p6108
tp6109
Rp6110
sS'loss_47.0087'
p6111
g233
(g237
S'8\xb9\xd0\xeanx\x91?'
p6112
tp6113
Rp6114
sS'loss_46.00539_CH2O2'
p6115
g233
(g237
S'\xcaO\x14\x16xQ\xeb?'
p6116
tp6117
Rp6118
sS'loss_74.0003'
p6119
g233
(g237
S'\x15\x07Y1_\x9c\xad?'
p6120
tp6121
Rp6122
sg3013
g233
(g237
S'\x99]5\x06C3Z?'
p6123
tp6124
Rp6125
sS'loss_46.01125_CH2O2'
p6126
g233
(g237
S'\xdfE\xad\\\xac\xa4f?'
p6127
tp6128
Rp6129
sS'fragment_85.08857'
p6130
g233
(g237
S'\x92\xc9\xe8\xfc\xe1\xbaV?'
p6131
tp6132
Rp6133
ssg202
(dp6134
S'loss_89.02361'
p6135
g233
(g237
S'o\xa1\xa9\x08\x81L}?'
p6136
tp6137
Rp6138
sS'loss_131.02161'
p6139
g233
(g237
S'O\x9dx\xdd\x04hq?'
p6140
tp6141
Rp6142
sS'loss_59.98468'
p6143
g233
(g237
S'\x81\xe3\xc2U\xca|r?'
p6144
tp6145
Rp6146
sg3888
g233
(g237
S"\x83\xad'x\xbb0\x96?"
p6147
tp6148
Rp6149
sS'fragment_135.03122_C7H5NO2'
p6150
g233
(g237
S'\x97q\xd5\xb2\xb1]\xa5?'
p6151
tp6152
Rp6153
sg1146
g233
(g237
S'\xf6\x1b\x15\x1a\x8a\xeb\x95?'
p6154
tp6155
Rp6156
sg3896
g233
(g237
S'\xd8!\xc8\xd9\xf3|n?'
p6157
tp6158
Rp6159
sg4828
g233
(g237
S'bI6\xb19\xad\x92?'
p6160
tp6161
Rp6162
sS'fragment_196.13459'
p6163
g233
(g237
S'M\xf0u\x17\xc8\xd6e?'
p6164
tp6165
Rp6166
sS'loss_100.01582'
p6167
g233
(g237
S'\x0c\x15\x15\x18\xf6"{?'
p6168
tp6169
Rp6170
sS'fragment_178.12137_C9H8NO3'
p6171
g233
(g237
S'H\x96p\x8bN\xb4^?'
p6172
tp6173
Rp6174
sg6103
g233
(g237
S'\x0c\x15\x15\x18\xf6"{?'
p6175
tp6176
Rp6177
sS'fragment_196.05931'
p6178
g233
(g237
S'\x15\xb6\xa1\xbe\x1a\xbbu?'
p6179
tp6180
Rp6181
sg4747
g233
(g237
S'\x82}G\xaa8aZ?'
p6182
tp6183
Rp6184
sg2931
g233
(g237
S'\x82}G\xaa8aZ?'
p6185
tp6186
Rp6187
sg709
g233
(g237
S'e\xc6X\xa9\xf3n\x82?'
p6188
tp6189
Rp6190
sg3088
g233
(g237
S'\x82}G\xaa8aZ?'
p6191
tp6192
Rp6193
sS'loss_143.0217'
p6194
g233
(g237
S'\x15\xb6\xa1\xbe\x1a\xbbu?'
p6195
tp6196
Rp6197
sg4375
g233
(g237
S'\xbdd\x1e\xc9"\x0eV?'
p6198
tp6199
Rp6200
sg4902
g233
(g237
S'\x9c\xd0L4\x1e\xbb\x96?'
p6201
tp6202
Rp6203
sg1453
g233
(g237
S'\x15\xb6\xa1\xbe\x1a\xbbu?'
p6204
tp6205
Rp6206
sg4832
g233
(g237
S'\x0f?:\xd6\xecu\x96?'
p6207
tp6208
Rp6209
sg1473
g233
(g237
S'M\xf0u\x17\xc8\xd6e?'
p6210
tp6211
Rp6212
sg4018
g233
(g237
S'\x87\xd7L6\xb2\x83a?'
p6213
tp6214
Rp6215
sS'fragment_150.09062_C8H8NO2'
p6216
g233
(g237
S'Qg\xdd\xff\xf5\x1b\x95?'
p6217
tp6218
Rp6219
sg316
g233
(g237
S'3\x80\x0e1.Z\x81?'
p6220
tp6221
Rp6222
sg5123
g233
(g237
S'\x87\xd7L6\xb2\x83a?'
p6223
tp6224
Rp6225
sg2979
g233
(g237
S'\x82}G\xaa8aZ?'
p6226
tp6227
Rp6228
sg3182
g233
(g237
S'gTeJ\x81_\xbb?'
p6229
tp6230
Rp6231
sS'fragment_123.06823'
p6232
g233
(g237
S'\xbe\xb1`\xf3Y\x00\x8a?'
p6233
tp6234
Rp6235
sS'loss_55.00558'
p6236
g233
(g237
S'\x87\xd7L6\xb2\x83a?'
p6237
tp6238
Rp6239
sg308
g233
(g237
S'\xdd\x98/\xc2!\xc2\x9d?'
p6240
tp6241
Rp6242
sg2957
g233
(g237
S'\x12\t\x9f\xf8\xdd)j?'
p6243
tp6244
Rp6245
sg3013
g233
(g237
S'\x07\xfem\xcb\xcd|\x93?'
p6246
tp6247
Rp6248
sS'fragment_95.04936_C6H7O'
p6249
g233
(g237
S'e\xfb\xaaliy\xa8?'
p6250
tp6251
Rp6252
sg348
g233
(g237
S'\x87\xd7L6\xb2\x83a?'
p6253
tp6254
Rp6255
sg4038
g233
(g237
S'u\x953\xe9hSl?'
p6256
tp6257
Rp6258
sg5744
g233
(g237
S'\x81\xe3\xc2U\xca|r?'
p6259
tp6260
Rp6261
sg3903
g233
(g237
S'\xeac\xe1&=\xadc?'
p6262
tp6263
Rp6264
sg6119
g233
(g237
S'\xe0u\x12V\xe1"\x85?'
p6265
tp6266
Rp6267
sS'fragment_141.05499'
p6268
g233
(g237
S'>[_\x90\xbb7|?'
p6269
tp6270
Rp6271
sg863
g233
(g237
S'\xe4oWFU\xa6t?'
p6272
tp6273
Rp6274
sS'loss_46.04101'
p6275
g233
(g237
S'mlWE\x0bB\xa7?'
p6276
tp6277
Rp6278
sg4058
g233
(g237
S'\x15\xb6\xa1\xbe\x1a\xbbu?'
p6279
tp6280
Rp6281
sS'loss_126.03181'
p6282
g233
(g237
S'\x87\xd7L6\xb2\x83a?'
p6283
tp6284
Rp6285
sS'fragment_178.08711_C9H8NO3'
p6286
g233
(g237
S'\xd0\xf8\xeb5\x96k\xa9?'
p6287
tp6288
Rp6289
sS'fragment_150.05583_C8H8NO2'
p6290
g233
(g237
S'\x88\xb8V\x11\x03\xe3\xbe?'
p6291
tp6292
Rp6293
sS'fragment_178.04896_C9H8NO3'
p6294
g233
(g237
S'\xbavQ\x8c\x8f~\xb5?'
p6295
tp6296
Rp6297
sS'loss_73.02871'
p6298
g233
(g237
S'\x15\xb6\xa1\xbe\x1a\xbbu?'
p6299
tp6300
Rp6301
sS'fragment_107.03635'
p6302
g233
(g237
S'\x8cN\xb4\x1e\xe0\xc8\x90?'
p6303
tp6304
Rp6305
sS'fragment_96.05664'
p6306
g233
(g237
S'\x87\xd7L6\xb2\x83a?'
p6307
tp6308
Rp6309
sg324
g233
(g237
S'\xbdd\x1e\xc9"\x0eV?'
p6310
tp6311
Rp6312
sg2722
g233
(g237
S'\x12\t\x9f\xf8\xdd)j?'
p6313
tp6314
Rp6315
sg899
g233
(g237
S"\t\x1b\xd0'\x82\x9f\x8b?"
p6316
tp6317
Rp6318
sg4846
g233
(g237
S'\x8b\xee\xf3\x82\xda)\x99?'
p6319
tp6320
Rp6321
ssg205
(dp6322
S'fragment_280.12933'
p6323
g233
(g237
S'\xaf\x00\xe8\xeaD+p?'
p6324
tp6325
Rp6326
sS'fragment_175.10678'
p6327
g233
(g237
S'\x10\xb9;\x0e\x8c\xc8k?'
p6328
tp6329
Rp6330
sS'fragment_56.04977_C3H6N'
p6331
g233
(g237
S'w\xfeu\xef\xa4\x9e\xcb?'
p6332
tp6333
Rp6334
sS'fragment_233.14951'
p6335
g233
(g237
S'/\xc7KZ\x1c\x9c\x84?'
p6336
tp6337
Rp6338
sS'fragment_74.05984_C3H8NO'
p6339
g233
(g237
S'\xcaP\xaa\x81\x95\xfc\xd7?'
p6340
tp6341
Rp6342
sg3142
g233
(g237
S'\x1b\xb5f\xe8\x9cx\x83?'
p6343
tp6344
Rp6345
sS'fragment_120.1017'
p6346
g233
(g237
S'\xfdH|\xb2B\xb9t?'
p6347
tp6348
Rp6349
sS'fragment_215.1037'
p6350
g233
(g237
S'\xaf\x00\xe8\xeaD+p?'
p6351
tp6352
Rp6353
sS'fragment_102.09182'
p6354
g233
(g237
S'r\xb5\xda]?\x8e{?'
p6355
tp6356
Rp6357
sS'fragment_298.17593'
p6358
g233
(g237
S'\x08\xa3\x81v\x1dU\x82?'
p6359
tp6360
Rp6361
sg477
g233
(g237
S'\x10\xb9;\x0e\x8c\xc8k?'
p6362
tp6363
Rp6364
sS'fragment_270.14465'
p6365
g233
(g237
S'\xf4\x90\x9c\x04\x9e1\x81?'
p6366
tp6367
Rp6368
sg1262
g233
(g237
S'\xfdH|\xb2B\xb9t?'
p6369
tp6370
Rp6371
sg3570
g233
(g237
S'\xd6$\xb2\xceCrr?'
p6372
tp6373
Rp6374
sS'fragment_120.0564'
p6375
g233
(g237
S'\xbd\xf2\x91\xd9\x85b\x9b?'
p6376
tp6377
Rp6378
sS'fragment_411.22501'
p6379
g233
(g237
S'\xaf\x00\xe8\xeaD+p?'
p6380
tp6381
Rp6382
sg2004
g233
(g237
S'K\x91\x10z@Gy?'
p6383
tp6384
Rp6385
sS'loss_183.03759'
p6386
g233
(g237
S'\xaf/\xd5\xdf)!S?'
p6387
tp6388
Rp6389
sg705
g233
(g237
S'\xaf\x00\xe8\xeaD+p?'
p6390
tp6391
Rp6392
sg592
g233
(g237
S'\xf4\x90\x9c\x04\x9e1\x81?'
p6393
tp6394
Rp6395
sS'fragment_203.10159'
p6396
g233
(g237
S'r\xb5\xda]?\x8e{?'
p6397
tp6398
Rp6399
sS'fragment_197.09151'
p6400
g233
(g237
S'\xa43\xaa\x05\x19q\x8b?'
p6401
tp6402
Rp6403
sS'fragment_247.11133'
p6404
g233
(g237
S'K\xc0\xfdn%=\\?'
p6405
tp6406
Rp6407
sS'fragment_298.13678'
p6408
g233
(g237
S'\xfdH|\xb2B\xb9t?'
p6409
tp6410
Rp6411
sS'fragment_157.09708'
p6412
g233
(g237
S'$mF\x96A\x00w?'
p6413
tp6414
Rp6415
ssg208
(dp6416
g1087
g233
(g237
S'\xbf\xa1\xd6\xb6z\x06\xb7?'
p6417
tp6418
Rp6419
sg4996
g233
(g237
S'5\xbe\xb3D\x9b\xff`?'
p6420
tp6421
Rp6422
sg6236
g233
(g237
S'\xd4\xe2\xa7\x009\x1d\xaa?'
p6423
tp6424
Rp6425
sS'loss_23.01523'
p6426
g233
(g237
S'i\x96&\x9f\x13l\x98?'
p6427
tp6428
Rp6429
sS'fragment_80.04949_C5H6N'
p6430
g233
(g237
S'0\xcdN<[V\xbc?'
p6431
tp6432
Rp6433
sS'fragment_105.057'
p6434
g233
(g237
S'5\xbe\xb3D\x9b\xff`?'
p6435
tp6436
Rp6437
sg1896
g233
(g237
S'\xe8\xb8\xa9\x06\xbe\xcc]?'
p6438
tp6439
Rp6440
sg1980
g233
(g237
S'\x04^\x00\xceMVz?'
p6441
tp6442
Rp6443
sS'fragment_81.03402'
p6444
g233
(g237
S'\xe41.\x01\xcdgU?'
p6445
tp6446
Rp6447
sg5159
g233
(g237
S'\n=\xf7\xf1\x08\xf5\x8d?'
p6448
tp6449
Rp6450
sg4902
g233
(g237
S'\x88y9o\x90\xc2\x89?'
p6451
tp6452
Rp6453
sS'fragment_88.05238'
p6454
g233
(g237
S'\xf6\x9f\x12\x86\xd7\x18c?'
p6455
tp6456
Rp6457
sS'loss_60.04021'
p6458
g233
(g237
S'\xf2\x9bYX(B\x9a?'
p6459
tp6460
Rp6461
sS'fragment_89.0426'
p6462
g233
(g237
S'xc\xd0\x08PKg?'
p6463
tp6464
Rp6465
sS'fragment_108.04425_C6H6NO'
p6466
g233
(g237
S'e\xf7\xb7\x05\x1a\xe0\xcf?'
p6467
tp6468
Rp6469
sg2529
g233
(g237
S'\xd6\xc7\x02\xaaq\x8d\x90?'
p6470
tp6471
Rp6472
sg4177
g233
(g237
S'\xb9\x13\xf0\xc0\x1bb\x8c?'
p6473
tp6474
Rp6475
sS'fragment_149.07172'
p6476
g233
(g237
S'\xf6\x9f\x12\x86\xd7\x18c?'
p6477
tp6478
Rp6479
sS'fragment_53.03888_C4H5'
p6480
g233
(g237
S'\xaahV\x9e\x14R\xb9?'
p6481
tp6482
Rp6483
sg2052
g233
(g237
S'5\xbe\xb3D\x9b\xff`?'
p6484
tp6485
Rp6486
sg5190
g233
(g237
S'\xe1f\x92mqd\xa5?'
p6487
tp6488
Rp6489
sS'fragment_75.02734'
p6490
g233
(g237
S'\xf9\xdd\xce\x8e\xc4\xe5\x97?'
p6491
tp6492
Rp6493
sS'fragment_79.01815'
p6494
g233
(g237
S'5\xbe\xb3D\x9b\xff`?'
p6495
tp6496
Rp6497
sS'fragment_88.05865'
p6498
g233
(g237
S'\x06\xb6{\xec\x17\x90\x85?'
p6499
tp6500
Rp6501
sS'loss_62.99542'
p6502
g233
(g237
S'xc\xd0\x08PKg?'
p6503
tp6504
Rp6505
sg1725
g233
(g237
S'\xb7\x81q\xc7\x132e?'
p6506
tp6507
Rp6508
sS'fragment_75.02058'
p6509
g233
(g237
S'\xb7\x81q\xc7\x132e?'
p6510
tp6511
Rp6512
sS'fragment_134.06444'
p6513
g233
(g237
S'\xf6\x9f\x12\x86\xd7\x18c?'
p6514
tp6515
Rp6516
sS'loss_41.02668'
p6517
g233
(g237
S'\xf2\x9bYX(B\x9a?'
p6518
tp6519
Rp6520
sS'fragment_71.03233'
p6521
g233
(g237
S'5\xbe\xb3D\x9b\xff`?'
p6522
tp6523
Rp6524
sS'fragment_117.03796'
p6525
g233
(g237
S'5\xbe\xb3D\x9b\xff`?'
p6526
tp6527
Rp6528
sg408
g233
(g237
S'#6\x10\xaa\xb3\xe1\x9c?'
p6529
tp6530
Rp6531
sS'loss_45.02125'
p6532
g233
(g237
S'\xe0G4\xe9\xfa\xfdr?'
p6533
tp6534
Rp6535
ssg211
(dp6536
g1087
g233
(g237
S'|\x8e\xf3\n[\x87\x88?'
p6537
tp6538
Rp6539
sg3104
g233
(g237
S'\xc2\xffW\xa9\xc7\x1f]?'
p6540
tp6541
Rp6542
sg5675
g233
(g237
S'\x1d\\{\x9e\xeb\xb8\x89?'
p6543
tp6544
Rp6545
sg2544
g233
(g237
S',\x08\xfa\x97\x89\x7fj?'
p6546
tp6547
Rp6548
sS'fragment_98.06001'
p6549
g233
(g237
S':\xf3\xe3\xe39$\x86?'
p6550
tp6551
Rp6552
sg713
g233
(g237
S'\x9b:\x1c\x1a\x07\x06r?'
p6553
tp6554
Rp6555
sS'fragment_74.06031_C3H8NO'
p6556
g233
(g237
S'6H\x84e\x92\xf2\xa5?'
p6557
tp6558
Rp6559
sg686
g233
(g237
S'\xcc\xbe\x02\x8c\xe4\x87\x92?'
p6560
tp6561
Rp6562
sg1812
g233
(g237
S'e6\xcb"&Vc?'
p6563
tp6564
Rp6565
sS'loss_139.08425'
p6566
g233
(g237
S'\xa8\xd1\xdaIG\xb9e?'
p6567
tp6568
Rp6569
sS'loss_142.04768'
p6570
g233
(g237
S'\xb8\x92\x19\rC\x93S?'
p6571
tp6572
Rp6573
sg2382
g233
(g237
S'\xdd\xd5+A(it?'
p6574
tp6575
Rp6576
sg2786
g233
(g237
S'\x0b\xda\xa7-\x02\xbd\x86?'
p6577
tp6578
Rp6579
sg5995
g233
(g237
S'\xfc\xd7>B\x1c\xef\x91?'
p6580
tp6581
Rp6582
sg3453
g233
(g237
S'#\x9b\xbb\xfb\x04\xf3`?'
p6583
tp6584
Rp6585
sg1441
g233
(g237
S'\x03\xda\xd2"\xfb`z?'
p6586
tp6587
Rp6588
sg465
g233
(g237
S'e6\xcb"&Vc?'
p6589
tp6590
Rp6591
sS'fragment_128.07037'
p6592
g233
(g237
S'd\xcb g\x80;\x92?'
p6593
tp6594
Rp6595
sg1445
g233
(g237
S',\x08\xfa\x97\x89\x7fj?'
p6596
tp6597
Rp6598
sg6051
g233
(g237
S'\xb1>\x19\xe6\xcbEo?'
p6599
tp6600
Rp6601
sg1469
g233
(g237
S'\x7f\xa3\xb3\xd4\xb8\x9au?'
p6602
tp6603
Rp6604
sg308
g233
(g237
S'\x03\xda\xd2"\xfb`z?'
p6605
tp6606
Rp6607
sS'fragment_224.11133'
p6608
g233
(g237
S'n\xa3\t\xbf\xaa\xe2l?'
p6609
tp6610
Rp6611
sS'loss_126.0526'
p6612
g233
(g237
S'n\xa3\t\xbf\xaa\xe2l?'
p6613
tp6614
Rp6615
sS'fragment_188.09255'
p6616
g233
(g237
S'\xf5N\x8e\xf5\xc90\xbf?'
p6617
tp6618
Rp6619
sS'fragment_101.09635'
p6620
g233
(g237
S'\xb8\x92\x19\rC\x93S?'
p6621
tp6622
Rp6623
sg911
g233
(g237
S'\xb8\x92\x19\rC\x93S?'
p6624
tp6625
Rp6626
sS'loss_144.04202'
p6627
g233
(g237
S'\x9b:\x1c\x1a\x07\x06r?'
p6628
tp6629
Rp6630
sS'loss_155.07965'
p6631
g233
(g237
S'n\xa3\t\xbf\xaa\xe2l?'
p6632
tp6633
Rp6634
sg507
g233
(g237
S'e6\xcb"&Vc?'
p6635
tp6636
Rp6637
sS'loss_137.06861'
p6638
g233
(g237
S'<\x08\xa4\xad\x977s?'
p6639
tp6640
Rp6641
sg784
g233
(g237
S'b\x0cK\x8fj/y?'
p6642
tp6643
Rp6644
sS'loss_48.0218'
p6645
g233
(g237
S'sy^6\xf6\x17\x8f?'
p6646
tp6647
Rp6648
sS'loss_112.07382'
p6649
g233
(g237
S'\xc2\xffW\xa9\xc7\x1f]?'
p6650
tp6651
Rp6652
sS'fragment_207.15882'
p6653
g233
(g237
S'e6\xcb"&Vc?'
p6654
tp6655
Rp6656
sg1518
g233
(g237
S'\xf9l\x94\x86v\xd4p?'
p6657
tp6658
Rp6659
sg2560
g233
(g237
S'\xd84\x87\xef\xb7\xa4\xb0?'
p6660
tp6661
Rp6662
sg1550
g233
(g237
S'\xcc\xbe\x02\x8c\xe4\x87\x92?'
p6663
tp6664
Rp6665
sS'loss_98.05764'
p6666
g233
(g237
S'\xf9l\x94\x86v\xd4p?'
p6667
tp6668
Rp6669
sS'fragment_140.07024'
p6670
g233
(g237
S':\xf3\xe3\xe39$\x86?'
p6671
tp6672
Rp6673
sg4945
g233
(g237
S'\xc1>\xc3\xfb\xd9\xfdw?'
p6674
tp6675
Rp6676
sg3209
g233
(g237
S'\xc2\xffW\xa9\xc7\x1f]?'
p6677
tp6678
Rp6679
sg859
g233
(g237
S'\x9b:\x1c\x1a\x07\x06r?'
p6680
tp6681
Rp6682
sg376
g233
(g237
S'\xf9l\x94\x86v\xd4p?'
p6683
tp6684
Rp6685
sg3175
g233
(g237
S'*\x9dO\xdc\xe3d\x99?'
p6686
tp6687
Rp6688
sS'fragment_368.15671'
p6689
g233
(g237
S'0\xdeN\x0f\xd5\xb4\x8c?'
p6690
tp6691
Rp6692
sg5319
g233
(g237
S'\xbf)\x032|\xea\x8a?'
p6693
tp6694
Rp6695
sS'loss_127.08422'
p6696
g233
(g237
S'\x86\xa3\x88\xdf\xbf\xf6\x81?'
p6697
tp6698
Rp6699
sS'loss_125.06876'
p6700
g233
(g237
S'n\xa3\t\xbf\xaa\xe2l?'
p6701
tp6702
Rp6703
sg380
g233
(g237
S'\xe5\xd5\x00L/\xc5\x80?'
p6704
tp6705
Rp6706
sg5879
g233
(g237
S'W\x8aL)\x88\x8f\x82?'
p6707
tp6708
Rp6709
sS'loss_96.04225'
p6710
g233
(g237
S'\x9b:\x1c\x1a\x07\x06r?'
p6711
tp6712
Rp6713
sS'loss_143.07942'
p6714
g233
(g237
S'e6\xcb"&Vc?'
p6715
tp6716
Rp6717
sg372
g233
(g237
S'\xe5\xd5\x00L/\xc5\x80?'
p6718
tp6719
Rp6720
sg5628
g233
(g237
S'\xc2\xffW\xa9\xc7\x1f]?'
p6721
tp6722
Rp6723
sg922
g233
(g237
S'#\x1c\x9b\xe6\xf0\xfd\xa6?'
p6724
tp6725
Rp6726
sS'fragment_103.03863'
p6727
g233
(g237
S'\x14\xef<\x02g,\x80?'
p6728
tp6729
Rp6730
sg4077
g233
(g237
S'#\x9b\xbb\xfb\x04\xf3`?'
p6731
tp6732
Rp6733
sS'fragment_206.10232_C8H16NO5'
p6734
g233
(g237
S'\x03*\x80\x93\xbb&\xca?'
p6735
tp6736
Rp6737
sg3189
g233
(g237
S'\xb8\x92\x19\rC\x93S?'
p6738
tp6739
Rp6740
sS'loss_134.05766'
p6741
g233
(g237
S'\xf9l\x94\x86v\xd4p?'
p6742
tp6743
Rp6744
sS'fragment_62.06022'
p6745
g233
(g237
S'Mu\xb7T# \x89?'
p6746
tp6747
Rp6748
ssg214
(dp6749
S'fragment_106.11142'
p6750
g233
(g237
S'\x86t\xd5\x94j1\xb2?'
p6751
tp6752
Rp6753
sS'loss_92.01076_C2H4O4'
p6754
g233
(g237
S'\x08\x14a\xd8\x88h\x93?'
p6755
tp6756
Rp6757
sS'fragment_196.08235'
p6758
g233
(g237
S'x-_\x93p2\xa1?'
p6759
tp6760
Rp6761
sS'fragment_150.07658'
p6762
g233
(g237
S'\xe8\xc9\xdd%K2\x88?'
p6763
tp6764
Rp6765
sS'fragment_61.08429'
p6766
g233
(g237
S'\xdc\xe02\xfcu\xcf\x83?'
p6767
tp6768
Rp6769
sS'loss_122.05736'
p6770
g233
(g237
S'\xe0\x83\x16\n\xbdE\x85?'
p6771
tp6772
Rp6773
sg2329
g233
(g237
S"R\xc9yY\xc4'\x80?"
p6774
tp6775
Rp6776
sg4368
g233
(g237
S'\xf8Ul]g\x0b\x8e?'
p6777
tp6778
Rp6779
sg1605
g233
(g237
S'?\xe5 \xf9h\x1e\x90?'
p6780
tp6781
Rp6782
sg1170
g233
(g237
S'\xdc\xe02\xfcu\xcf\x83?'
p6783
tp6784
Rp6785
sg5628
g233
(g237
S'\x95\x06e{lv\xc2?'
p6786
tp6787
Rp6788
sS'loss_64.01595_CH4O3'
p6789
g233
(g237
S'P\x84a#\xa2M\xd7?'
p6790
tp6791
Rp6792
sS'fragment_341.17413'
p6793
g233
(g237
S'\xbb\xe7\xc9\xdd%K\xa2?'
p6794
tp6795
Rp6796
sS'fragment_359.18497'
p6797
g233
(g237
S'\x99\x8a\x948\xcb\xbe\xa1?'
p6798
tp6799
Rp6800
sS'fragment_62.08774'
p6801
g233
(g237
S'}4\x0f(\xc2\xb0q?'
p6802
tp6803
Rp6804
sS'fragment_132.06554'
p6805
g233
(g237
S'\xdcD\xff\x82\x80\xd7\xa2?'
p6806
tp6807
Rp6808
sg1648
g233
(g237
S'\xe8\xc9\xdd%K2\x88?'
p6809
tp6810
Rp6811
ssg217
(dp6812
g4487
g233
(g237
S'%\x8eU\xff\x01\xfaq?'
p6813
tp6814
Rp6815
sS'fragment_191.08122'
p6816
g233
(g237
S'\xed\xdf\n\x8a\x0c\x85[?'
p6817
tp6818
Rp6819
sS'fragment_209.09231_C10H13N2O3'
p6820
g233
(g237
S'\x95=G*\x81|\xd2?'
p6821
tp6822
Rp6823
sS'fragment_324.14598'
p6824
g233
(g237
S'\xe7\xf2\xd14\x0c\x86\x88?'
p6825
tp6826
Rp6827
sS'fragment_227.10063'
p6828
g233
(g237
S'\x984b\xd9s\xa4R?'
p6829
tp6830
Rp6831
sg5791
g233
(g237
S'\xc8\xa4\x11\xcb\x9e#\x95?'
p6832
tp6833
Rp6834
sS'fragment_287.1008'
p6835
g233
(g237
S'\xa0\xc5Y\x9d\xd22b?'
p6836
tp6837
Rp6838
sS'fragment_335.12305'
p6839
g233
(g237
S'\xa0\xc5Y\x9d\xd22b?'
p6840
tp6841
Rp6842
sg3706
g233
(g237
S'\x984b\xd9s\xa4R?'
p6843
tp6844
Rp6845
sg5297
g233
(g237
S'\xa0\xc5Y\x9d\xd22b?'
p6846
tp6847
Rp6848
sS'fragment_125.07093_C6H9N2O'
p6849
g233
(g237
S'\xe8\xed\xe0\x07\x93\xf1\xa5?'
p6850
tp6851
Rp6852
sS'loss_144.05287'
p6853
g233
(g237
S'\xfa\xb8\x7f+(2t?'
p6854
tp6855
Rp6856
sS'fragment_317.11148'
p6857
g233
(g237
S'\x9f\xc6V\xa6\xb7\x83o?'
p6858
tp6859
Rp6860
sg5106
g233
(g237
S'\x91H&\x8dX\xf6\x8c?'
p6861
tp6862
Rp6863
sS'loss_189.06327'
p6864
g233
(g237
S'y9\xfe\xaf\x9a\xdaz?'
p6865
tp6866
Rp6867
sS'fragment_226.12024'
p6868
g233
(g237
S'\x91H&\x8dX\xf6\x8c?'
p6869
tp6870
Rp6871
sS'fragment_162.05615'
p6872
g233
(g237
S'\xa0\xc5Y\x9d\xd22b?'
p6873
tp6874
Rp6875
sS'fragment_180.10347'
p6876
g233
(g237
S'%\x8eU\xff\x01\xfaq?'
p6877
tp6878
Rp6879
sg5079
g233
(g237
S'\x87e\xcf\x91J \x9f?'
p6880
tp6881
Rp6882
sS'fragment_181.09786_C9H13N2O2'
p6883
g233
(g237
S'\xee\x88\xba%\xe4\xa8\xd2?'
p6884
tp6885
Rp6886
ssg220
(dp6887
S'fragment_68.99719'
p6888
g233
(g237
S'\xb9\xdf\x8b{jpq?'
p6889
tp6890
Rp6891
sS'fragment_246.05385'
p6892
g233
(g237
S'a\xcf\x07\x07\xc5\xf0R?'
p6893
tp6894
Rp6895
sS'fragment_217.05132'
p6896
g233
(g237
S'\xce9\xac.Sf`?'
p6897
tp6898
Rp6899
sS'fragment_274.04895'
p6900
g233
(g237
S'a\xcf\x07\x07\xc5\xf0R?'
p6901
tp6902
Rp6903
sS'fragment_92.02608'
p6904
g233
(g237
S'\xca\xb0"ye\x8fW?'
p6905
tp6906
Rp6907
sS'loss_194.07849'
p6908
g233
(g237
S'a\xcf\x07\x07\xc5\xf0R?'
p6909
tp6910
Rp6911
sS'fragment_302.04205'
p6912
g233
(g237
S'7\x1b\xc7\xa0\xf3\x04e?'
p6913
tp6914
Rp6915
sS'fragment_229.05091'
p6916
g233
(g237
S'Um\xefK\xe4\xf2k?'
p6917
tp6918
Rp6919
sS'fragment_257.04329'
p6920
g233
(g237
S'3\x92=\xeb\x05.\\?'
p6921
tp6922
Rp6923
sS'fragment_153.019'
p6924
g233
(g237
S'\xd71\xb4&[^x?'
p6925
tp6926
Rp6927
sS'loss_162.05262_C5H10O5'
p6928
g233
(g237
S'/\xc7\xdfWe\x84\xe9?'
p6929
tp6930
Rp6931
sS'fragment_285.04045'
p6932
g233
(g237
S'\xca\xb0"ye\x8fW?'
p6933
tp6934
Rp6935
sS'fragment_203.03319'
p6936
g233
(g237
S'a\xcf\x07\x07\xc5\xf0R?'
p6937
tp6938
Rp6939
sS'fragment_245.04268'
p6940
g233
(g237
S'3\x92=\xeb\x05.\\?'
p6941
tp6942
Rp6943
sS'fragment_317.064'
p6944
g233
(g237
S'l\xc5\x11\xfd\xce\xe6\x9c?'
p6945
tp6946
Rp6947
sg867
g233
(g237
S'\x8c\xa2\xc1_\xab\xadz?'
p6948
tp6949
Rp6950
ssg223
(dp6951
S'fragment_278.05564_C17H14O4'
p6952
g233
(g237
S'\xe1\xd0\xcdU\x01\x81\xaa?'
p6953
tp6954
Rp6955
sg990
g233
(g237
S'7\xc9;;\xbf\xceS?'
p6956
tp6957
Rp6958
sS'loss_162.0641'
p6959
g233
(g237
S'\x14\xdbB\xe9\x06[Z?'
p6960
tp6961
Rp6962
sS'loss_152.0579'
p6963
g233
(g237
S'7\xf0\x16\xb4\xb4\xcc\x80?'
p6964
tp6965
Rp6966
sS'fragment_123.04467'
p6967
g233
(g237
S'Dui\x9b\xbc\x81}?'
p6968
tp6969
Rp6970
sg3627
g233
(g237
S'\x9c\x16\xc1\xfd\xf4\xb7X?'
p6971
tp6972
Rp6973
sS'loss_126.04266'
p6974
g233
(g237
S'J@8d\x9b\x88P?'
p6975
tp6976
Rp6977
sS'fragment_291.15748'
p6978
g233
(g237
S'\xc1\x04\xbaO\xad+R?'
p6979
tp6980
Rp6981
sS'fragment_425.2164'
p6982
g233
(g237
S'[Wq\x1cX\xa8\x9c?'
p6983
tp6984
Rp6985
sS'fragment_306.05456'
p6986
g233
(g237
S'%R?\x12\xe3\x14W?'
p6987
tp6988
Rp6989
sS'fragment_293.08022'
p6990
g233
(g237
S'\xf3\x10\x179\xb8\xbc\x8f?'
p6991
tp6992
Rp6993
sS'fragment_237.08847'
p6994
g233
(g237
S'7\xc9;;\xbf\xceS?'
p6995
tp6996
Rp6997
sg3486
g233
(g237
S'7\xc9;;\xbf\xceS?'
p6998
tp6999
Rp7000
sS'fragment_265.08376'
p7001
g233
(g237
S'J@8d\x9b\x88P?'
p7002
tp7003
Rp7004
sS'fragment_205.06529'
p7005
g233
(g237
S'5p\xf0\x055\x99\x89?'
p7006
tp7007
Rp7008
sS'fragment_157.10838_C6H13N4O'
p7009
g233
(g237
S'v\xa6\xb9\xa7\xb7Y\xaa?'
p7010
tp7011
Rp7012
sg803
g233
(g237
S')-\x99K\xf24\xa6?'
p7013
tp7014
Rp7015
sS'fragment_60.05587_CH6N3'
p7016
g233
(g237
S'j\x0cLj\xef\xdd\xa8?'
p7017
tp7018
Rp7019
sg3361
g233
(g237
S'\xca\xcc-\xe5\x00\xa3h?'
p7020
tp7021
Rp7022
sS'fragment_451.19942'
p7023
g233
(g237
S'\xc1\x04\xbaO\xad+R?'
p7024
tp7025
Rp7026
sg3682
g233
(g237
S'\x07\x08:\x10\x14\xaa\x83?'
p7027
tp7028
Rp7029
sS'fragment_165.07004'
p7030
g233
(g237
S'*m\xac"\xb2\xce\xa1?'
p7031
tp7032
Rp7033
sS'fragment_235.07587'
p7034
g233
(g237
S'\xd3\xdb,\x8d\xa9\x18\x91?'
p7035
tp7036
Rp7037
sg4085
g233
(g237
S'J@8d\x9b\x88P?'
p7038
tp7039
Rp7040
sS'fragment_291.1625'
p7041
g233
(g237
S'x\xcf\xc9\xd2\xb1u\x83?'
p7042
tp7043
Rp7044
sg408
g233
(g237
S'\xa5\xde4\x93H/o?'
p7045
tp7046
Rp7047
sS'fragment_168.05674'
p7048
g233
(g237
S'\x9c\x16\xc1\xfd\xf4\xb7X?'
p7049
tp7050
Rp7051
sS'fragment_193.063'
p7052
g233
(g237
S'\x9c\x16\xc1\xfd\xf4\xb7X?'
p7053
tp7054
Rp7055
sS'fragment_301.15234'
p7056
g233
(g237
S'\xa5\xde4\x93H/o?'
p7057
tp7058
Rp7059
sS'fragment_363.18115'
p7060
g233
(g237
S'\x05\xaf\xee\xda\x89ti?'
p7061
tp7062
Rp7063
sg6853
g233
(g237
S'e\x7f\xa8"\xcb\xb9c?'
p7064
tp7065
Rp7066
sS'fragment_277.08605'
p7067
g233
(g237
S'\xb3\xd8eA0Ea?'
p7068
tp7069
Rp7070
sS'fragment_181.06564'
p7071
g233
(g237
S'\x9c\x16\xc1\xfd\xf4\xb7X?'
p7072
tp7073
Rp7074
sS'fragment_295.09452'
p7075
g233
(g237
S'V\xece\xc4\x98;z?'
p7076
tp7077
Rp7078
sS'fragment_153.06581'
p7079
g233
(g237
S'\xb3\xd8eA0Ea?'
p7080
tp7081
Rp7082
sS'fragment_189.07017'
p7083
g233
(g237
S'\xc4\xa8`C\x97\xcd\x89?'
p7084
tp7085
Rp7086
sg1457
g233
(g237
S'A\x91\xaf\xd0\x12Fj?'
p7087
tp7088
Rp7089
sS'fragment_261.63838'
p7090
g233
(g237
S'\xd9\xaa\xcb\x01\x93\x8d\x7f?'
p7091
tp7092
Rp7093
sg5079
g233
(g237
S'\x7fW*\x91ES~?'
p7094
tp7095
Rp7096
sS'fragment_233.06163'
p7097
g233
(g237
S'\x14\xdbB\xe9\x06[Z?'
p7098
tp7099
Rp7100
sg4754
g233
(g237
S'\x8eQ[?-ip?'
p7101
tp7102
Rp7103
sS'fragment_245.09315'
p7104
g233
(g237
S'\xae\x8d\xbd&\xd1qU?'
p7105
tp7106
Rp7107
sS'fragment_222.06679'
p7108
g233
(g237
S'.\x81\xa1\xf7\xeb#v?'
p7109
tp7110
Rp7111
sS'fragment_207.07981_C15H11O'
p7112
g233
(g237
S'\xf6I\xff0\xe2X\x93?'
p7113
tp7114
Rp7115
sS'fragment_56.01352'
p7116
g233
(g237
S'\xf37\xf2\xb1\xad\xbal?'
p7117
tp7118
Rp7119
sS'fragment_252.07794'
p7120
g233
(g237
S'\xca\xcc-\xe5\x00\xa3h?'
p7121
tp7122
Rp7123
sS'fragment_291.10614'
p7124
g233
(g237
S'\x89\xc6\x9fM\x0e\xfc\x88?'
p7125
tp7126
Rp7127
sg404
g233
(g237
S'x(\xc8\xab<D_?'
p7128
tp7129
Rp7130
sS'fragment_273.10905'
p7131
g233
(g237
S'P\xdd\xb3x\xef,\x90?'
p7132
tp7133
Rp7134
sS'fragment_194.07199'
p7135
g233
(g237
S'\xbf\xabn\x1a#\xf6\x87?'
p7136
tp7137
Rp7138
sS'fragment_291.11987'
p7139
g233
(g237
S'Dui\x9b\xbc\x81}?'
p7140
tp7141
Rp7142
sg2883
g233
(g237
S'H\xde\x8c\x9dv7\xa2?'
p7143
tp7144
Rp7145
sS'fragment_295.09907'
p7146
g233
(g237
S'\xfc\x86\x041\x16\xca\x90?'
p7147
tp7148
Rp7149
sS'fragment_186.03238'
p7150
g233
(g237
S'J@8d\x9b\x88P?'
p7151
tp7152
Rp7153
sg1904
g233
(g237
S'Dui\x9b\xbc\x81}?'
p7154
tp7155
Rp7156
sg2142
g233
(g237
S'\xa5E#\xe3\xfd\xc6w?'
p7157
tp7158
Rp7159
sS'loss_172.04792'
p7160
g233
(g237
S'%R?\x12\xe3\x14W?'
p7161
tp7162
Rp7163
sS'fragment_291.06795'
p7164
g233
(g237
S'\xf37\xf2\xb1\xad\xbal?'
p7165
tp7166
Rp7167
sS'fragment_131.12915_C5H15N4'
p7168
g233
(g237
S';\x93\xc9\xfc\x1b\x93\xb1?'
p7169
tp7170
Rp7171
sg2086
g233
(g237
S'\x1f|(bd;\x82?'
p7172
tp7173
Rp7174
sS'fragment_175.12007'
p7175
g233
(g237
S'\x01dF\xc0*\xa1]?'
p7176
tp7177
Rp7178
sS'fragment_177.07039'
p7179
g233
(g237
S'\xae\x8d\xbd&\xd1qU?'
p7180
tp7181
Rp7182
sg332
g233
(g237
S'^i~\x9b\x8cFs?'
p7183
tp7184
Rp7185
sS'fragment_178.0764'
p7186
g233
(g237
S'\xb3\xd8eA0Ea?'
p7187
tp7188
Rp7189
sS'fragment_282.65002'
p7190
g233
(g237
S'7\xc9;;\xbf\xceS?'
p7191
tp7192
Rp7193
sS'fragment_234.06738'
p7194
g233
(g237
S'\x1f|(bd;\x82?'
p7195
tp7196
Rp7197
sS'fragment_195.07582'
p7198
g233
(g237
S'p\xe0z\xc4h\x00p?'
p7199
tp7200
Rp7201
sS'fragment_321.07496'
p7202
g233
(g237
S'\x9dv7\x12\x15\xeb\x9a?'
p7203
tp7204
Rp7205
sS'fragment_263.06912'
p7206
g233
(g237
S'\xcd\xb0\xe7\xaf\xaa\xde{?'
p7207
tp7208
Rp7209
sg2094
g233
(g237
S'\xee\xba&7\xb9\x16b?'
p7210
tp7211
Rp7212
sS'fragment_193.0655'
p7213
g233
(g237
S'%R?\x12\xe3\x14W?'
p7214
tp7215
Rp7216
sS'fragment_179.0854'
p7217
g233
(g237
S'\xa1ai\x18T\x8bd?'
p7218
tp7219
Rp7220
sS'fragment_114.10279_C5H12N3'
p7221
g233
(g237
S'^\x92Aj\x87\xfb\xad?'
p7222
tp7223
Rp7224
sS'fragment_179.08303'
p7225
g233
(g237
S'x(\xc8\xab<D_?'
p7226
tp7227
Rp7228
sS'fragment_426.22433'
p7229
g233
(g237
S'x\xf6\xa4K\xa7s`?'
p7230
tp7231
Rp7232
sS'fragment_206.07152'
p7233
g233
(g237
S'\x8e\xeal\xefw\xd1g?'
p7234
tp7235
Rp7236
sS'fragment_178.07822'
p7237
g233
(g237
S')\xf6\xe5\x05\xcd\xb6\x8e?'
p7238
tp7239
Rp7240
sS'fragment_176.06235'
p7241
g233
(g237
S'\x18&\xeb\x03f.f?'
p7242
tp7243
Rp7244
sg1078
g233
(g237
S'\xa5E#\xe3\xfd\xc6w?'
p7245
tp7246
Rp7247
sS'fragment_267.10105'
p7248
g233
(g237
S'#\x87\xbd\xa5\x03ur?'
p7249
tp7250
Rp7251
sS'fragment_275.17137'
p7252
g233
(g237
S'j\xfcs\x9d\xbf]n?'
p7253
tp7254
Rp7255
sg1837
g233
(g237
S'\x8e\xeal\xefw\xd1g?'
p7256
tp7257
Rp7258
sg4801
g233
(g237
S'\x9c\x16\xc1\xfd\xf4\xb7X?'
p7259
tp7260
Rp7261
sS'loss_162.09967'
p7262
g233
(g237
S'\x9c\x16\xc1\xfd\xf4\xb7X?'
p7263
tp7264
Rp7265
sS'fragment_250.06296'
p7266
g233
(g237
S'\x1c\n\xa5\xce\x0fjy?'
p7267
tp7268
Rp7269
sS'fragment_98.06001_C5H8NO'
p7270
g233
(g237
S'p\xd8\x0e\xdeP\xc0\xb2?'
p7271
tp7272
Rp7273
sg1094
g233
(g237
S'#\x87\xbd\xa5\x03ur?'
p7274
tp7275
Rp7276
sS'fragment_221.05945'
p7277
g233
(g237
S'\x19\x7f69\xf0c\x80?'
p7278
tp7279
Rp7280
sS'fragment_119.04874'
p7281
g233
(g237
S'\x9c\x16\xc1\xfd\xf4\xb7X?'
p7282
tp7283
Rp7284
sS'fragment_262.06083'
p7285
g233
(g237
S'\x8eQ[?-ip?'
p7286
tp7287
Rp7288
sg863
g233
(g237
S'#\x87\xbd\xa5\x03ur?'
p7289
tp7290
Rp7291
sg1098
g233
(g237
S'\xb3\xd8eA0Ea?'
p7292
tp7293
Rp7294
sg392
g233
(g237
S'.\x1a\xb3\xa76\x8cm?'
p7295
tp7296
Rp7297
sS'fragment_146.09283'
p7298
g233
(g237
S'\x9c\x16\xc1\xfd\xf4\xb7X?'
p7299
tp7300
Rp7301
ssg226
(dp7302
S'loss_110.02127'
p7303
g233
(g237
S'\xa6=Z3\x91\x11\x81?'
p7304
tp7305
Rp7306
sS'fragment_147.0556'
p7307
g233
(g237
S'\xbf\xac\xae\x1c^\x0ft?'
p7308
tp7309
Rp7310
sS'fragment_61.02895'
p7311
g233
(g237
S'cR\x1f\xf4\xdcb\x8d?'
p7312
tp7313
Rp7314
sg2248
g233
(g237
S'i\x9bU\x81\xb6Ye?'
p7315
tp7316
Rp7317
sS'loss_112.01945'
p7318
g233
(g237
S'\xb0\xb5\xd5\xf1Z[\x9d?'
p7319
tp7320
Rp7321
sg256
g233
(g237
S'\x8f3rZ\x14\xda\x94?'
p7322
tp7323
Rp7324
sg2544
g233
(g237
S'\xb6\xff\x99\x05i{\x80?'
p7325
tp7326
Rp7327
sS'loss_72.02092'
p7328
g233
(g237
S'\xcf\xa0\xdd\xb3\xc3G\x89?'
p7329
tp7330
Rp7331
sS'fragment_147.08371'
p7332
g233
(g237
S':\x89\xa1\xdc%=S?'
p7333
tp7334
Rp7335
sg662
g233
(g237
S'\xb6\xff\x99\x05i{\x80?'
p7336
tp7337
Rp7338
sg1087
g233
(g237
S'\x0bDp\xec\xd2(\x90?'
p7339
tp7340
Rp7341
sS'loss_110.05754'
p7342
g233
(g237
S'\xb0\x82X\xa6\x98cl?'
p7343
tp7344
Rp7345
sg280
g233
(g237
S'\x1a9-\nm\x8ap?'
p7346
tp7347
Rp7348
sg5144
g233
(g237
S'\x81\xa4\xaf\xd3\xfegv?'
p7349
tp7350
Rp7351
sg1684
g233
(g237
S'\xc8\x8b\xb2\xf8\xe0q}?'
p7352
tp7353
Rp7354
sS'fragment_186.05889'
p7355
g233
(g237
S'\x1c\x04\x94\xb1A@\x99?'
p7356
tp7357
Rp7358
sg709
g233
(g237
S'\x1ck\x1c\xcf\xfaX\x86?'
p7359
tp7360
Rp7361
sg887
g233
(g237
S'\xfc\x810\x1a\xfb\xbe\x90?'
p7362
tp7363
Rp7364
sS'fragment_264.12426'
p7365
g233
(g237
S'\xee\x8aW\xef\xf7\nj?'
p7366
tp7367
Rp7368
sg1445
g233
(g237
S'\xbex\xa3Jg\xeeW?'
p7369
tp7370
Rp7371
sS'fragment_83.06823'
p7372
g233
(g237
S'\xe4\xabS\x13u\xa8`?'
p7373
tp7374
Rp7375
sS'fragment_104.01683'
p7376
g233
(g237
S'\x8b\x83\xb3\xaf\x81\xca\x7f?'
p7377
tp7378
Rp7379
sS'fragment_101.11551'
p7380
g233
(g237
S'\x03cP\x03\xe7s\x90?'
p7381
tp7382
Rp7383
sS'loss_90.03155'
p7384
g233
(g237
S'\xcf9U\x96\n/\x9c?'
p7385
tp7386
Rp7387
sg5875
g233
(g237
S'\xa9\x073T1\x9e~?'
p7388
tp7389
Rp7390
sg304
g233
(g237
S'\x0cBT\xdfi\xd6\x99?'
p7391
tp7392
Rp7393
sS'fragment_64.92754'
p7394
g233
(g237
S'\xf4\xa0\x101\x0f\n\x91?'
p7395
tp7396
Rp7397
sg784
g233
(g237
S':\x89\xa1\xdc%=S?'
p7398
tp7399
Rp7400
sg4813
g233
(g237
S'/\x84-pg!\xa5?'
p7401
tp7402
Rp7403
sS'fragment_75.04398'
p7404
g233
(g237
S'\x88\xb9\xda\x8e\xe1=\x82?'
p7405
tp7406
Rp7407
sS'loss_78.03166_C2H6O3'
p7408
g233
(g237
S'2\xc6\xaai\xf5\xd0\xd3?'
p7409
tp7410
Rp7411
sg5901
g233
(g237
S'b 0/O\x94w?'
p7412
tp7413
Rp7414
sg3903
g233
(g237
S'x\x90\x12\x9fP\xbb\x95?'
p7415
tp7416
Rp7417
sg3710
g233
(g237
S'\xa6\xa3T\xca\x15\x01c?'
p7418
tp7419
Rp7420
sg847
g233
(g237
S'\x0cBT\xdfi\xd6\x99?'
p7421
tp7422
Rp7423
sg851
g233
(g237
S'\x82\xd6\x9e\x98\x8c6\x8c?'
p7424
tp7425
Rp7426
sg2595
g233
(g237
S'+\x93V8W\xb2g?'
p7427
tp7428
Rp7429
sS'loss_108.0422_C3H8O4'
p7430
g233
(g237
S'Ys\x1b\x18Z\x00\x84?'
p7431
tp7432
Rp7433
sg5806
g233
(g237
S'\x91\x98\xdejd\xa0\x8b?'
p7434
tp7435
Rp7436
sS'fragment_204.06902'
p7437
g233
(g237
S'\xc8\x8b\xb2\xf8\xe0q}?'
p7438
tp7439
Rp7440
sS'fragment_222.07951'
p7441
g233
(g237
S'i\x9bU\x81\xb6Ye?'
p7442
tp7443
Rp7444
sS'loss_94.02667'
p7445
g233
(g237
S'\xf2z\xa0\xa0\xd3P\xac?'
p7446
tp7447
Rp7448
sS'loss_66.03193_CH6O3'
p7449
g233
(g237
S'\x08\x1f\x8e\xe2\xcb\x98\xa6?'
p7450
tp7451
Rp7452
sss.