(dp0
S'jeol_0036.ms'
p1
(lp2
I2424
asS'fiocruz_0096.ms'
p3
(lp4
I10770962
asS'naist_0053.ms'
p5
(lp6
I804
asS'eawag_0334.ms'
p7
(lp8
I2237
asS'ufz_0023.ms'
p9
(lp10
I13860817
asS'ipb_0127.ms'
p11
(lp12
I49181
asS'eawag_0730.ms'
p13
(lp14
I5101
asS'eawag_0040.ms'
p15
(lp16
I4759
asS'ufz_0294.ms'
p17
(lp18
I4444190
asS'eawag_0089.ms'
p19
(lp20
I35728
asS'washington_1140.ms'
p21
(lp22
I4581368
asS'washington_0488.ms'
p23
(lp24
I4444068
asS'ipb_0052.ms'
p25
(lp26
I10892
asS'eawag_0729.ms'
p27
(lp28
I2068
asS'washington_1147.ms'
p29
(lp30
I4862304
asS'washington_0976.ms'
p31
(lp32
I4444263
asS'riken_0376.ms'
p33
(lp34
I78620
asS'riken_0360.ms'
p35
(lp36
I4932280
asS'eawag_0172.ms'
p37
(lp38
I82791
asS'washington_0824.ms'
p39
(lp40
I87690
asS'washington_0754.ms'
p41
(lp42
I600201
asS'washington_0564.ms'
p43
(lp44
I3763622
asS'fiocruz_0001.ms'
p45
(lp46
I4444100
asS'mpi_0093.ms'
p47
(lp48
I16249282
asS'washington_0020.ms'
p49
(lp50
I21030
asS'eawag_0158.ms'
p51
(lp52
I77680
asS'ufz_0177.ms'
p53
(lp54
I55867
asS'ufz_0302.ms'
p55
(lp56
I29430
asS'washington_0925.ms'
p57
(lp58
I600178
asS'ufz_0253.ms'
p59
(lp60
I6630
asS'washington_0563.ms'
p61
(lp62
I208593
asS'eawag_0016.ms'
p63
(lp64
I23134
asS'eawag_0097.ms'
p65
(lp66
I59166
asS'washington_0240.ms'
p67
(lp68
I96133
asS'riken_0424.ms'
p69
(lp70
I589
aI21230594
aI21238666
asS'eawag_0387.ms'
p71
(lp72
I4818
asS'riken_1219.ms'
p73
(lp74
I4575318
asS'eawag_0225.ms'
p75
(lp76
I3268
asS'env_025.ms'
p77
(lp78
I4027
asS'riken_0554.ms'
p79
(lp80
I4932280
asS'eawag_0696.ms'
p81
(lp82
I2681
asS'washington_0303.ms'
p83
(lp84
I64715
asS'eawag_0108.ms'
p85
(lp86
I82842
asS'eawag_0304.ms'
p87
(lp88
I4122
asS'eawag_0611.ms'
p89
(lp90
I3192
asS'riken_0647.ms'
p91
(lp92
I11657757
asS'ipb_0049.ms'
p93
(lp94
I4337937
asS'eawag_0403.ms'
p95
(lp96
I3901
asS'washington_1085.ms'
p97
(lp98
I230562
aI21233670
asS'washington_0893.ms'
p99
(lp100
I130302
asS'washington_0873.ms'
p101
(lp102
I385351
asS'ufz_0262.ms'
p103
(lp104
I13846749
asS'washington_0074.ms'
p105
(lp106
I4444102
asS'ufz_0115.ms'
p107
(lp108
I5381276
asS'ufz_0221.ms'
p109
(lp110
I75667
asS'eawag_0319.ms'
p111
(lp112
I23254962
asS'washington_0711.ms'
p113
(lp114
I70356
asS'riken_0621.ms'
p115
(lp116
I14677
asS'eawag_0245.ms'
p117
(lp118
I21896503
asS'washington_0916.ms'
p119
(lp120
I755
asS'washington_1136.ms'
p121
(lp122
I813
asS'mpi_0018.ms'
p123
(lp124
I4444755
asS'washington_1058.ms'
p125
(lp126
I3123441
asS'eawag_0408.ms'
p127
(lp128
I5162
asS'washington_0125.ms'
p129
(lp130
I3546693
asS'eawag_0036.ms'
p131
(lp132
I38804
asS'riken_0481.ms'
p133
(lp134
I282
asS'fiocruz_0049.ms'
p135
(lp136
I6552
asS'eawag_0482.ms'
p137
(lp138
I35265
asS'washington_0294.ms'
p139
(lp140
I4972
asS'ufz_0004.ms'
p141
(lp142
I924
asS'eawag_0568.ms'
p143
(lp144
I17346969
aI21258165
aI4941676
aI34560899
asS'eawag_0009.ms'
p145
(lp146
I77706
asS'eawag_0738.ms'
p147
(lp148
I3257
asS'ufz_0210.ms'
p149
(lp150
I4662
asS'riken_1228.ms'
p151
(lp152
I11208702
asS'metabolights_0004.ms'
p153
(lp154
I456
asS'ipb_0101.ms'
p155
(lp156
I4444068
asS'riken_0498.ms'
p157
(lp158
I4329
asS'washington_0625.ms'
p159
(lp160
I3971
asS'washington_0249.ms'
p161
(lp162
I96133
asS'riken_1239.ms'
p163
(lp164
I63063
asS'eawag_0553.ms'
p165
(lp166
I45565
asS'ipb_0030.ms'
p167
(lp168
I411
asS'ipb_0026.ms'
p169
(lp170
I574
asS'washington_0168.ms'
p171
(lp172
I4536751
asS'riken_0383.ms'
p173
(lp174
I9590
asS'eawag_0436.ms'
p175
(lp176
I9467809
asS'washington_0354.ms'
p177
(lp178
I8622
aI558737
aI83744
aI107761
aI2319713
aI220387
aI4954551
aI5140804
aI2279603
aI4642516
aI107697
aI402916
aI559233
aI839561
aI1046018
aI555755
aI2496819
aI5025102
aI5145721
aI5415699
aI8017242
aI8626215
aI5558761
aI10038017
aI10039693
aI10043551
aI23260712
aI26359377
aI49072131
aI10043584
aI10043901
aI10044749
aI10236466
aI10039692
aI5885627
aI5885628
aI10035338
aI10038016
aI5558760
aI5415698
aI5026738
aI1064957
asS'fiocruz_0014.ms'
p179
(lp180
I15940
aI21427978
asS'washington_0376.ms'
p181
(lp182
I9741
asS'washington_0413.ms'
p183
(lp184
I5964
asS'eawag_0313.ms'
p185
(lp186
I4145
asS'riken_0339.ms'
p187
(lp188
I4444973
asS'ufz_0213.ms'
p189
(lp190
I3269
asS'jeol_0005.ms'
p191
(lp192
I10696152
asS'eawag_0453.ms'
p193
(lp194
I3116
asS'mpi_0004.ms'
p195
(lp196
I2915865
asS'metabolights_0038.ms'
p197
(lp198
I907
asS'washington_0520.ms'
p199
(lp200
I88148
asS'mpi_0026.ms'
p201
(lp202
I3698
asS'ufz_0268.ms'
p203
(lp204
I4444448
asS'eawag_0101.ms'
p205
(lp206
I3605
asS'riken_0535.ms'
p207
(lp208
I10624
asS'washington_0193.ms'
p209
(lp210
I3467
asS'riken_0479.ms'
p211
(lp212
I5709
asS'washington_0943.ms'
p213
(lp214
I3520425
asS'washington_0652.ms'
p215
(lp216
I2730
asS'ufz_0028.ms'
p217
(lp218
I7223
asS'riken_1249.ms'
p219
(lp220
I10128116
aI35797041
asS'ipb_0059.ms'
p221
(lp222
I4445025
asS'eawag_0342.ms'
p223
(lp224
I59379
aI21235392
asS'washington_0476.ms'
p225
(lp226
I4444068
asS'eawag_0561.ms'
p227
(lp228
I21108555
aI21234225
aI21240703
asS'riken_0524.ms'
p229
(lp230
I5891
asS'eawag_0293.ms'
p231
(lp232
I56233
asS'ipb_0041.ms'
p233
(lp234
I74683
asS'eawag_0755.ms'
p235
(lp236
I2519
asS'eawag_0608.ms'
p237
(lp238
I54923
aI20400
aI395194
aI394414
aI394874
aI92329
aI395197
aI399451
aI5028080
aI409913
aI21111796
aI559209
aI86991
aI5367694
aI141234
aI150184
aI5145965
aI4642397
aI4925632
aI5026313
aI553601
aI9208035
aI9272812
aI9304525
aI9982339
aI10371803
aI4401850
aI397044
aI5401628
aI5408826
aI8667577
aI8715345
aI8787295
aI8929807
aI8953814
aI9066131
aI9098847
aI9099356
aI9120728
aI9153692
aI31045295
aI35518728
aI50645871
aI57267532
aI57268011
aI57268078
aI57268267
aI57268320
aI57268444
aI57268519
aI24531996
aI29786837
asS'eawag_0596.ms'
p239
(lp240
I5524
aI21240729
asS'eawag_0489.ms'
p241
(lp242
I10652432
asS'washington_0437.ms'
p243
(lp244
I872
asS'washington_0869.ms'
p245
(lp246
I4537957
asS'ufz_0059.ms'
p247
(lp248
I68465
asS'eawag_0473.ms'
p249
(lp250
I8013489
asS'fiocruz_0030.ms'
p251
(lp252
I4444991
asS'ipb_0142.ms'
p253
(lp254
I4730614
asS'eawag_0255.ms'
p255
(lp256
I77934
asS'eawag_0153.ms'
p257
(lp258
I12874
asS'washington_0596.ms'
p259
(lp260
I5471
asS'riken_0515.ms'
p261
(lp262
I1098
asS'fiocruz_0071.ms'
p263
(lp264
I4474632
asS'eawag_0062.ms'
p265
(lp266
I8381
asS'riken_0527.ms'
p267
(lp268
I61020
asS'eawag_0494.ms'
p269
(lp270
I3902475
asS'eawag_0700.ms'
p271
(lp272
I28467587
asS'eawag_0364.ms'
p273
(lp274
I46739
asS'eawag_0722.ms'
p275
(lp276
I501757
asS'washington_0386.ms'
p277
(lp278
I3324
asS'washington_0159.ms'
p279
(lp280
I4122
asS'washington_0593.ms'
p281
(lp282
I8622
aI558737
aI83744
aI107761
aI2319713
aI220387
aI4954551
aI5140804
aI2279603
aI4642516
aI107697
aI402916
aI559233
aI839561
aI1046018
aI555755
aI2496819
aI5025102
aI5145721
aI5415699
aI8017242
aI8626215
aI5558761
aI10038017
aI10039693
aI10043551
aI23260712
aI26359377
aI49072131
aI10043584
aI10043901
aI10044749
aI10236466
aI10039692
aI5885627
aI5885628
aI10035338
aI10038016
aI5558760
aI5415698
aI5026738
aI1064957
asS'eawag_0519.ms'
p283
(lp284
I82721
asS'ufz_0116.ms'
p285
(lp286
I21169887
asS'washington_0116.ms'
p287
(lp288
I1065584
asS'washington_0980.ms'
p289
(lp290
I12944953
asS'ufz_0045.ms'
p291
(lp292
I13835179
asS'ufz_0091.ms'
p293
(lp294
I60796
asS'washington_0162.ms'
p295
(lp296
I4799
asS'riken_0749.ms'
p297
(lp298
I5337
asS'eawag_0217.ms'
p299
(lp300
I65525
asS'env_015.ms'
p301
(lp302
I2312
asS'eawag_0675.ms'
p303
(lp304
I9232930
asS'eawag_0500.ms'
p305
(lp306
I3746
asS'eawag_0299.ms'
p307
(lp308
I4160370
aI21232948
asS'ufz_0195.ms'
p309
(lp310
I2066
asS'ufz_0228.ms'
p311
(lp312
I58771
asS'eawag_0602.ms'
p313
(lp314
I3045
asS'riken_0700.ms'
p315
(lp316
I5369
asS'washington_0743.ms'
p317
(lp318
I217498
asS'ufz_0298.ms'
p319
(lp320
I11494
asS'eawag_0760.ms'
p321
(lp322
I3890
asS'eawag_0142.ms'
p323
(lp324
I18040
asS'riken_1209.ms'
p325
(lp326
I4851695
asS'ipb_0081.ms'
p327
(lp328
I4444113
asS'washington_1023.ms'
p329
(lp330
I600236
asS'washington_0456.ms'
p331
(lp332
I2265
asS'ipb_0069.ms'
p333
(lp334
I2263
asS'eawag_0531.ms'
p335
(lp336
I11677300
aI25058382
aI38772537
aI10687801
asS'ipb_0114.ms'
p337
(lp338
I3698
asS'riken_0726.ms'
p339
(lp340
I5157
asS'eawag_0503.ms'
p341
(lp342
I4408
asS'eawag_0278.ms'
p343
(lp344
I4103
asS'washington_0221.ms'
p345
(lp346
I589032
asS'riken_0625.ms'
p347
(lp348
I135
asS'env_002.ms'
p349
(lp350
I8251
asS'eawag_0188.ms'
p351
(lp352
I17340100
asS'eawag_0123.ms'
p353
(lp354
I2005851
asS'ufz_0154.ms'
p355
(lp356
I29348
asS'fiocruz_0076.ms'
p357
(lp358
I74659
asS'ufz_0235.ms'
p359
(lp360
I5823
asS'washington_0883.ms'
p361
(lp362
I335447
asS'ufz_0146.ms'
p363
(lp364
I9130
asS'riken_0695.ms'
p365
(lp366
I4483
asS'washington_0818.ms'
p367
(lp368
I87690
asS'washington_0329.ms'
p369
(lp370
I529067
asS'eawag_0612.ms'
p371
(lp372
I8037395
aI31047297
asS'eawag_0584.ms'
p373
(lp374
I4040
asS'fiocruz_0026.ms'
p375
(lp376
I4527386
asS'washington_0248.ms'
p377
(lp378
I1036
aI21108587
asS'washington_1091.ms'
p379
(lp380
I600080
asS'ufz_0061.ms'
p381
(lp382
I8834
asS'ufz_0135.ms'
p383
(lp384
I14790
asS'washington_0691.ms'
p385
(lp386
I815
asS'ufz_0258.ms'
p387
(lp388
I4751
aI21230582
asS'washington_0276.ms'
p389
(lp390
I4444100
asS'riken_0657.ms'
p391
(lp392
I29273171
aI21522625
aI24843838
asS'riken_0709.ms'
p393
(lp394
I10376
asS'eawag_0198.ms'
p395
(lp396
I2425
asS'eawag_0399.ms'
p397
(lp398
I3050
asS'eawag_0587.ms'
p399
(lp400
I103070
asS'eawag_0282.ms'
p401
(lp402
I2973
asS'washington_0131.ms'
p403
(lp404
I3546693
asS'eawag_0070.ms'
p405
(lp406
I5132
asS'ufz_0242.ms'
p407
(lp408
I10297844
asS'ufz_0104.ms'
p409
(lp410
I11003
asS'eawag_0148.ms'
p411
(lp412
I16567
asS'washington_0973.ms'
p413
(lp414
I3682954
asS'eawag_0574.ms'
p415
(lp416
I60483
asS'fiocruz_0080.ms'
p417
(lp418
I232
asS'jeol_0013.ms'
p419
(lp420
I4470717
asS'riken_1213.ms'
p421
(lp422
I22913842
aI24844477
asS'eawag_0540.ms'
p423
(lp424
I64352
asS'eawag_0345.ms'
p425
(lp426
I2669
asS'ipb_0018.ms'
p427
(lp428
I200
asS'eawag_0163.ms'
p429
(lp430
I3269
asS'eawag_0618.ms'
p431
(lp432
I2372
asS'washington_0746.ms'
p433
(lp434
I588780
asS'washington_1015.ms'
p435
(lp436
I4444764
asS'mpi_0010.ms'
p437
(lp438
I4444068
asS'eawag_0376.ms'
p439
(lp440
I16568
asS'ufz_0058.ms'
p441
(lp442
I21169887
asS'metabolights_0019.ms'
p443
(lp444
I4444100
asS'eawag_0231.ms'
p445
(lp446
I3322
asS'washington_0047.ms'
p447
(lp448
I549443
asS'washington_0888.ms'
p449
(lp450
I231922
asS'ufz_0205.ms'
p451
(lp452
I2925
asS'washington_0681.ms'
p453
(lp454
I5236
asS'eawag_0325.ms'
p455
(lp456
I10442628
asS'eawag_0800.ms'
p457
(lp458
I15790
asS'fiocruz_0040.ms'
p459
(lp460
I99622
asS'washington_0510.ms'
p461
(lp462
I268700
asS'riken_0449.ms'
p463
(lp464
I2423
asS'washington_0332.ms'
p465
(lp466
I235462
asS'eawag_0113.ms'
p467
(lp468
I28290255
asS'eawag_0660.ms'
p469
(lp470
I5823
asS'eawag_0654.ms'
p471
(lp472
I9495187
aI8116042
asS'washington_0757.ms'
p473
(lp474
I600201
asS'fiocruz_0103.ms'
p475
(lp476
I21428561
asS'ufz_0086.ms'
p477
(lp478
I776
asS'eawag_0793.ms'
p479
(lp480
I536024
asS'riken_0606.ms'
p481
(lp482
I194
asS'ufz_0307.ms'
p483
(lp484
I28443
asS'eawag_0461.ms'
p485
(lp486
I46142
asS'eawag_0714.ms'
p487
(lp488
I227671
asS'eawag_0513.ms'
p489
(lp490
I5401
asS'eawag_0520.ms'
p491
(lp492
I83443
asS'ipb_0078.ms'
p493
(lp494
I4799
asS'washington_0338.ms'
p495
(lp496
I1989
asS'eawag_0057.ms'
p497
(lp498
I9130
asS'ipb_0055.ms'
p499
(lp500
I4624
asS'riken_0557.ms'
p501
(lp502
I248332
asS'ufz_0301.ms'
p503
(lp504
I7994
asS'eawag_0623.ms'
p505
(lp506
I29969
asS'washington_0716.ms'
p507
(lp508
I1065583
asS'washington_0353.ms'
p509
(lp510
I395
asS'washington_0295.ms'
p511
(lp512
I2957
asS'ufz_0029.ms'
p513
(lp514
I776
asS'eawag_0728.ms'
p515
(lp516
I74027
asS'riken_0377.ms'
p517
(lp518
I12689
asS'riken_0676.ms'
p519
(lp520
I3350
asS'eawag_0173.ms'
p521
(lp522
I33617
asS'eawag_0048.ms'
p523
(lp524
I23133
asS'fiocruz_0000.ms'
p525
(lp526
I220386
asS'ufz_0127.ms'
p527
(lp528
I82834
asS'riken_1225.ms'
p529
(lp530
I10176995
asS'eawag_0425.ms'
p531
(lp532
I184727
asS'washington_1115.ms'
p533
(lp534
I90670
asS'washington_0447.ms'
p535
(lp536
I2797
aI21239667
asS'riken_0352.ms'
p537
(lp538
I3679415
asS'ufz_0050.ms'
p539
(lp540
I158326
asS'eawag_0687.ms'
p541
(lp542
I1212
asS'eawag_0390.ms'
p543
(lp544
I4739
asS'washington_0411.ms'
p545
(lp546
I21428631
asS'ipb_0145.ms'
p547
(lp548
I2915865
asS'eawag_0691.ms'
p549
(lp550
I12549
asS'riken_0512.ms'
p551
(lp552
I1050
asS'washington_0499.ms'
p553
(lp554
I10082789
aI10082788
asS'eawag_0469.ms'
p555
(lp556
I33326
asS'eawag_0450.ms'
p557
(lp558
I4665
asS'washington_0075.ms'
p559
(lp560
I208593
asS'washington_0568.ms'
p561
(lp562
I3763622
asS'ufz_0123.ms'
p563
(lp564
I2909
asS'ufz_0107.ms'
p565
(lp566
I20848
asS'eawag_0556.ms'
p567
(lp568
I10444406
aI21108571
aI21239989
asS'ufz_0273.ms'
p569
(lp570
I21108585
aI21230559
aI21233820
asS'washington_1005.ms'
p571
(lp572
I23942
asS'eawag_0224.ms'
p573
(lp574
I53863
asS'mpi_0050.ms'
p575
(lp576
I8018607
aI24785327
aI28639070
aI28639071
aI30776603
aI32042536
aI34978271
aI24784707
asS'riken_0342.ms'
p577
(lp578
I4444102
asS'washington_0806.ms'
p579
(lp580
I67942
asS'washington_0860.ms'
p581
(lp582
I295527
asS'washington_0735.ms'
p583
(lp584
I61532
asS'ipb_0008.ms'
p585
(lp586
I172965
asS'eawag_0102.ms'
p587
(lp588
I1906
asS'mpi_0034.ms'
p589
(lp590
I4385
asS'ipb_0126.ms'
p591
(lp592
I54923
aI20400
aI395194
aI394414
aI394874
aI92329
aI395197
aI399451
aI5028080
aI409913
aI21111796
aI559209
aI86991
aI5367694
aI141234
aI150184
aI5145965
aI4642397
aI4925632
aI5026313
aI553601
aI9208035
aI9272812
aI9304525
aI9982339
aI10371803
aI4401850
aI397044
aI5401628
aI5408826
aI8667577
aI8715345
aI8787295
aI8929807
aI8953814
aI9066131
aI9098847
aI9099356
aI9120728
aI9153692
aI31045295
aI35518728
aI50645871
aI57267532
aI57268011
aI57268078
aI57268267
aI57268320
aI57268444
aI57268519
aI24531996
aI29786837
asS'fiocruz_0056.ms'
p593
(lp594
I4451
asS'eawag_0767.ms'
p595
(lp596
I3046
asS'washington_0560.ms'
p597
(lp598
I2640438
asS'washington_0521.ms'
p599
(lp600
I901682
asS'ufz_0220.ms'
p601
(lp602
I2780
asS'eawag_0731.ms'
p603
(lp604
I5240
asS'washington_1027.ms'
p605
(lp606
I2816469
asS'eawag_0041.ms'
p607
(lp608
I4760
asS'eawag_0536.ms'
p609
(lp610
I472332
asS'ipb_0044.ms'
p611
(lp612
I3581
asS'ufz_0010.ms'
p613
(lp614
I716358
asS'washington_0581.ms'
p615
(lp616
I2114
asS'riken_0336.ms'
p617
(lp618
I10624
asS'riken_0363.ms'
p619
(lp620
I248332
asS'washington_0892.ms'
p621
(lp622
I346407
asS'riken_0439.ms'
p623
(lp624
I10290
asS'washington_1105.ms'
p625
(lp626
I90670
asS'ipb_0100.ms'
p627
(lp628
I4444395
asS'eawag_0499.ms'
p629
(lp630
I3286
asS'washington_0811.ms'
p631
(lp632
I87690
asS'eawag_0633.ms'
p633
(lp634
I14592
aI21234163
asS'mpi_0081.ms'
p635
(lp636
I597
asS'eawag_0011.ms'
p637
(lp638
I14790
asS'ipb_0134.ms'
p639
(lp640
I3971
asS'riken_0387.ms'
p641
(lp642
I1278
asS'washington_0624.ms'
p643
(lp644
I292
asS'ipb_0027.ms'
p645
(lp646
I853
asS'washington_1066.ms'
p647
(lp648
I4880412
asS'eawag_0008.ms'
p649
(lp650
I15359
asS'washington_0629.ms'
p651
(lp652
I3971
asS'washington_0282.ms'
p653
(lp654
I2442
asS'ufz_0166.ms'
p655
(lp656
I15972
asS'washington_0169.ms'
p657
(lp658
I4122
asS'mpi_0013.ms'
p659
(lp660
I4337937
asS'washington_0519.ms'
p661
(lp662
I285420
asS'eawag_0798.ms'
p663
(lp664
I9674933
asS'washington_0823.ms'
p665
(lp666
I13391
asS'ipb_0002.ms'
p667
(lp668
I4444395
asS'ufz_0252.ms'
p669
(lp670
I13853758
asS'eawag_0096.ms'
p671
(lp672
I5145
asS'fiocruz_0088.ms'
p673
(lp674
I913
asS'eawag_0386.ms'
p675
(lp676
I4597
asS'washington_1067.ms'
p677
(lp678
I3123441
asS'eawag_0307.ms'
p679
(lp680
I7252
asS'eawag_0337.ms'
p681
(lp682
I3776
asS'eawag_0771.ms'
p683
(lp684
I3263
asS'washington_0522.ms'
p685
(lp686
I890
asS'eawag_0664.ms'
p687
(lp688
I9621885
asS'ufz_0122.ms'
p689
(lp690
I33695
asS'riken_0585.ms'
p691
(lp692
I2015511
asS'washington_0247.ms'
p693
(lp694
I3002947
asS'eawag_0292.ms'
p695
(lp696
I21234160
aI21240392
asS'eawag_0275.ms'
p697
(lp698
I4768
asS'eawag_0609.ms'
p699
(lp700
I2380
asS'eawag_0597.ms'
p701
(lp702
I4563
asS'eawag_0246.ms'
p703
(lp704
I4087
asS'eawag_0446.ms'
p705
(lp706
I3345
asS'riken_0703.ms'
p707
(lp708
I4525
asS'washington_0945.ms'
p709
(lp710
I600178
asS'eawag_0547.ms'
p711
(lp712
I10466090
aI21240986
asS'eawag_0472.ms'
p713
(lp714
I58512
asS'ipb_0012.ms'
p715
(lp716
I80576
asS'riken_0677.ms'
p717
(lp718
I1113
asS'eawag_0254.ms'
p719
(lp720
I61521
asS'washington_0340.ms'
p721
(lp722
I3194
aI21240404
asS'eawag_0699.ms'
p723
(lp724
I2257
asS'ufz_0138.ms'
p725
(lp726
I13303
asS'riken_0482.ms'
p727
(lp728
I3776451
asS'eawag_0717.ms'
p729
(lp730
I24959845
asS'mpi_0019.ms'
p731
(lp732
I1166
asS'eawag_0082.ms'
p733
(lp734
I2925
asS'riken_0636.ms'
p735
(lp736
I244665
asS'eawag_0409.ms'
p737
(lp738
I5268
asS'eawag_0646.ms'
p739
(lp740
I8976
asS'riken_0599.ms'
p741
(lp742
I65756
asS'eawag_0483.ms'
p743
(lp744
I82747
asS'ufz_0171.ms'
p745
(lp746
I15417
asS'eawag_0629.ms'
p747
(lp748
I4622
asS'eawag_0709.ms'
p749
(lp750
I2718
asS'ufz_0241.ms'
p751
(lp752
I16867
asS'eawag_0168.ms'
p753
(lp754
I645289
asS'ipb_0033.ms'
p755
(lp756
I718
asS'ipb_0066.ms'
p757
(lp758
I141
asS'washington_1006.ms'
p759
(lp760
I4444764
asS'eawag_0365.ms'
p761
(lp762
I96828
asS'eawag_0298.ms'
p763
(lp764
I24133
asS'washington_0819.ms'
p765
(lp766
I67942
asS'riken_0333.ms'
p767
(lp768
I4444100
asS'washington_1143.ms'
p769
(lp770
I813
asS'eawag_0603.ms'
p771
(lp772
I2917
asS'ufz_0229.ms'
p773
(lp774
I2669
asS'eawag_0753.ms'
p775
(lp776
I2089
asS'ufz_0180.ms'
p777
(lp778
I1262
asS'mpi_0007.ms'
p779
(lp780
I2129
asS'mpi_0086.ms'
p781
(lp782
I21232026
asS'eawag_0653.ms'
p783
(lp784
I141676
asS'riken_1208.ms'
p785
(lp786
I4527386
asS'eawag_0562.ms'
p787
(lp788
I4731
aI21234161
asS'washington_0300.ms'
p789
(lp790
I4972
asS'washington_0015.ms'
p791
(lp792
I6502
asS'ufz_0212.ms'
p793
(lp794
I3691
asS'eawag_0428.ms'
p795
(lp796
I82873
asS'eawag_0778.ms'
p797
(lp798
I3843
asS'mpi_0055.ms'
p799
(lp800
I5328
asS'riken_0536.ms'
p801
(lp802
I4444973
asS'riken_0743.ms'
p803
(lp804
I8372337
aI24842308
aI24842326
asS'eawag_0069.ms'
p805
(lp806
I5136
asS'washington_0653.ms'
p807
(lp808
I21230630
aI21238238
aI21240790
asS'riken_1233.ms'
p809
(lp810
I24608100
asS'washington_0266.ms'
p811
(lp812
I2442
asS'washington_0538.ms'
p813
(lp814
I553573
asS'ufz_0019.ms'
p815
(lp816
I82796
asS'metabolights_0031.ms'
p817
(lp818
I4508522
asS'eawag_0431.ms'
p819
(lp820
I10701914
asS'ufz_0269.ms'
p821
(lp822
I4445025
asS'riken_0478.ms'
p823
(lp824
I786
asS'eawag_0806.ms'
p825
(lp826
I2654
asS'fiocruz_0016.ms'
p827
(lp828
I1166
asS'ufz_0066.ms'
p829
(lp830
I8098
asS'eawag_0134.ms'
p831
(lp832
I161537
asS'riken_1248.ms'
p833
(lp834
I24785071
asS'riken_0590.ms'
p835
(lp836
I167752
asS'eawag_0073.ms'
p837
(lp838
I12041
aI7939
aI5022871
aI5145910
aI402019
aI17340748
aI21170574
aI21474968
aI3900356
aI8208452
aI30782627
aI24890495
aI22901214
aI23124727
aI49071168
aI29314849
aI8072432
aI8163206
aI5036517
aI5036948
aI428488
aI8994
aI136028
aI22875092
aI8548270
aI8592996
aI8638255
aI8899089
aI9073172
aI9977782
aI10143637
aI13118209
aI22900884
aI21238834
aI17340794
aI17346666
aI17346672
aI17466687
aI411030
aI8008846
aI8209701
aI49071544
aI57267600
aI23319356
aI23718317
aI24589321
aI24765647
aI24823419
aI26368539
aI29305340
aI34524698
asS'washington_0061.ms'
p839
(lp840
I14792
asS'ipb_0058.ms'
p841
(lp842
I4288
aI21239192
aI21428210
asS'eawag_0189.ms'
p843
(lp844
I17340099
asS'eawag_0312.ms'
p845
(lp846
I1314
asS'riken_1230.ms'
p847
(lp848
I7991398
asS'eawag_0400.ms'
p849
(lp850
I3231
asS'washington_1090.ms'
p851
(lp852
I221804
asS'washington_0078.ms'
p853
(lp854
I2397096
asS'washington_0415.ms'
p855
(lp856
I106383
asS'riken_0656.ms'
p857
(lp858
I4952802
aI26358786
aI34978319
aI21470014
aI24846155
asS'eawag_0703.ms'
p859
(lp860
I84301
asS'eawag_0676.ms'
p861
(lp862
I27524395
asS'eawag_0199.ms'
p863
(lp864
I56653
asS'washington_1064.ms'
p865
(lp866
I3123441
asS'washington_0192.ms'
p867
(lp868
I4385
asS'eawag_0468.ms'
p869
(lp870
I12367
asS'ipb_0024.ms'
p871
(lp872
I843
asS'ipb_0046.ms'
p873
(lp874
I552646
asS'ufz_0077.ms'
p875
(lp876
I82796
asS'mpi_0099.ms'
p877
(lp878
I5328
asS'ufz_0178.ms'
p879
(lp880
I82853
asS'washington_0163.ms'
p881
(lp882
I4536751
asS'riken_0411.ms'
p883
(lp884
I312357
asS'fiocruz_0087.ms'
p885
(lp886
I6787
asS'jeol_0027.ms'
p887
(lp888
I4768
asS'riken_0725.ms'
p889
(lp890
I145156
asS'eawag_0381.ms'
p891
(lp892
I82797
asS'fiocruz_0052.ms'
p893
(lp894
I65571
asS'washington_0559.ms'
p895
(lp896
I14677
asS'mpi_0064.ms'
p897
(lp898
I8018607
aI24785327
aI28639070
aI28639071
aI30776603
aI32042536
aI34978271
aI24784707
asS'ufz_0196.ms'
p899
(lp900
I2908
asS'metabolights_0022.ms'
p901
(lp902
I810
asS'eawag_0398.ms'
p903
(lp904
I2967
asS'ufz_0090.ms'
p905
(lp906
I13856352
asS'eawag_0118.ms'
p907
(lp908
I9040
asS'ufz_0184.ms'
p909
(lp910
I3646
asS'washington_0666.ms'
p911
(lp912
I810
asS'riken_0748.ms'
p913
(lp914
I5970
asS'eawag_0740.ms'
p915
(lp916
I2849
asS'env_014.ms'
p917
(lp918
I3328
asS'fiocruz_0067.ms'
p919
(lp920
I14786
asS'eawag_0060.ms'
p921
(lp922
I6371
asS'riken_0598.ms'
p923
(lp924
I456
asS'washington_0603.ms'
p925
(lp926
I3502
asS'ufz_0170.ms'
p927
(lp928
I49469
asS'mpi_0076.ms'
p929
(lp930
I44205607
aI24644735
aI29272857
asS'ufz_0208.ms'
p931
(lp932
I64326
asS'eawag_0235.ms'
p933
(lp934
I4016
aI21234147
aI21240427
asS'ufz_0279.ms'
p935
(lp936
I7988
asS'ufz_0035.ms'
p937
(lp938
I1278
asS'eawag_0230.ms'
p939
(lp940
I5448
asS'washington_0866.ms'
p941
(lp942
I515267
asS'eawag_0079.ms'
p943
(lp944
I4863
asS'washington_0975.ms'
p945
(lp946
I147700
aI5140798
aI29272126
aI28426465
asS'riken_0752.ms'
p947
(lp948
I4444191
asS'eawag_0756.ms'
p949
(lp950
I10696636
asS'eawag_0705.ms'
p951
(lp952
I2542991
asS'washington_0922.ms'
p953
(lp954
I3520425
asS'eawag_0137.ms'
p955
(lp956
I2169
asS'eawag_0211.ms'
p957
(lp958
I77944
asS'washington_0531.ms'
p959
(lp960
I3693
asS'env_003.ms'
p961
(lp962
I31267
asS'eawag_0502.ms'
p963
(lp964
I3825
aI21201641
aI21201651
aI21234230
aI21240720
asS'washington_0457.ms'
p965
(lp966
I4923
asS'mpi_0107.ms'
p967
(lp968
I6019
aI10261
aI5904
aI76293
aI388469
aI388329
aI388323
aI389820
aI389834
aI21474888
aI21403080
aI134068
aI7827725
aI23327702
aI395053
aI8625444
aI9166684
aI395581
aI167021
aI2343054
aI32696825
aI17346888
aI7827724
aI17339359
aI4450545
aI388907
aI44205613
aI4450868
aI5496160
aI5496161
aI5884073
aI5884075
aI556898
aI556899
aI556900
aI10039768
aI10039769
aI10039770
aI10039771
aI10061091
aI10061092
aI10082708
aI10082709
aI10082772
aI10082773
aI10082774
aI10082806
aI10082811
aI10082812
aI10082813
aI17340562
aI17345052
aI34968021
aI27330332
aI7828101
aI7995148
aI8060113
aI8103621
aI8466600
aI8466601
aI8503188
aI21864880
aI21865471
aI21865472
aI21865473
aI21865474
aI21865475
aI22842239
aI31043181
aI21435636
aI21435908
aI32696861
aI23327704
aI24534251
aI26329533
aI26571451
aI57268606
aI57268867
asS'ufz_0155.ms'
p969
(lp970
I4025
asS'eawag_0478.ms'
p971
(lp972
I13087
asS'fiocruz_0025.ms'
p973
(lp974
I4445181
asS'washington_0220.ms'
p975
(lp976
I589037
asS'fiocruz_0077.ms'
p977
(lp978
I4573
asS'riken_0694.ms'
p979
(lp980
I911
asS'eawag_0794.ms'
p981
(lp982
I18444
asS'washington_0623.ms'
p983
(lp984
I3288
asS'washington_1089.ms'
p985
(lp986
I8150356
asS'washington_0882.ms'
p987
(lp988
I4537957
asS'eawag_0555.ms'
p989
(lp990
sS'mpi_0051.ms'
p991
(lp992
I292349
asS'washington_0441.ms'
p993
(lp994
I4923
asS'riken_0607.ms'
p995
(lp996
I892
asS'washington_0352.ms'
p997
(lp998
I4624
asS'washington_0970.ms'
p999
(lp1000
I391190
asS'washington_0281.ms'
p1001
(lp1002
I3523
asS'washington_1110.ms'
p1003
(lp1004
I8150356
asS'ufz_0165.ms'
p1005
(lp1006
I15359
asS'ufz_0007.ms'
p1007
(lp1008
I12818
asS'eawag_0019.ms'
p1009
(lp1010
I66326
asS'ipb_0107.ms'
p1011
(lp1012
I4444755
asS'ipb_0054.ms'
p1013
(lp1014
I4880
asS'ufz_0300.ms'
p1015
(lp1016
I30932
asS'eawag_0586.ms'
p1017
(lp1018
I4440
asS'washington_0129.ms'
p1019
(lp1020
I4513980
asS'eawag_0789.ms'
p1021
(lp1022
I3326
asS'mpi_0049.ms'
p1023
(lp1024
I16249282
asS'eawag_0508.ms'
p1025
(lp1026
I4418638
asS'fiocruz_0039.ms'
p1027
(lp1028
I4444
aI21240258
asS'washington_0130.ms'
p1029
(lp1030
I21428561
asS'riken_1241.ms'
p1031
(lp1032
I4510257
asS'eawag_0039.ms'
p1033
(lp1034
I82876
asS'fiocruz_0017.ms'
p1035
(lp1036
I4444764
asS'eawag_0330.ms'
p1037
(lp1038
I5254097
asS'washington_0331.ms'
p1039
(lp1040
I2731
asS'eawag_0344.ms'
p1041
(lp1042
I10607767
asS'eawag_0162.ms'
p1043
(lp1044
I33406
asS'ufz_0293.ms'
p1045
(lp1046
I24387
asS'riken_0665.ms'
p1047
(lp1048
I4527073
asS'mpi_0045.ms'
p1049
(lp1050
I5328
asS'riken_0738.ms'
p1051
(lp1052
I4478806
aI9390830
aI24844831
aI32674250
asS'riken_0561.ms'
p1053
(lp1054
I4527386
asS'riken_0730.ms'
p1055
(lp1056
I810
asS'riken_0353.ms'
p1057
(lp1058
I13822698
asS'eawag_0776.ms'
p1059
(lp1060
I3574
aI21207075
asS'eawag_0391.ms'
p1061
(lp1062
I4034
asS'eawag_0114.ms'
p1063
(lp1064
I4932270
asS'riken_1214.ms'
p1065
(lp1066
I24844620
asS'washington_0506.ms'
p1067
(lp1068
I454657
asS'ipb_0144.ms'
p1069
(lp1070
I4880
asS'eawag_0110.ms'
p1071
(lp1072
I36542
asS'eawag_0690.ms'
p1073
(lp1074
I5209
asS'washington_0590.ms'
p1075
(lp1076
I2114
asS'env_017.ms'
p1077
(lp1078
I8253
asS'eawag_0042.ms'
p1079
(lp1080
I45757
asS'washington_0385.ms'
p1081
(lp1082
I3534
aI21108562
aI21395313
asS'ufz_0283.ms'
p1083
(lp1084
I18156
asS'washington_0388.ms'
p1085
(lp1086
I9741
asS'eawag_0459.ms'
p1087
(lp1088
I11338519
asS'eawag_0686.ms'
p1089
(lp1090
I25996639
asS'eawag_0324.ms'
p1091
(lp1092
I4275
asS'mpi_0025.ms'
p1093
(lp1094
I4923
asS'ufz_0264.ms'
p1095
(lp1096
I6916
asS'ufz_0110.ms'
p1097
(lp1098
I7234
asS'eawag_0193.ms'
p1099
(lp1100
I30881
asS'washington_0769.ms'
p1101
(lp1102
I14987
asS'ipb_0095.ms'
p1103
(lp1104
I4444395
asS'eawag_0416.ms'
p1105
(lp1106
I46525
asS'eawag_0782.ms'
p1107
(lp1108
I4384
asS'ufz_0288.ms'
p1109
(lp1110
I55933
asS'washington_0756.ms'
p1111
(lp1112
I346415
asS'ufz_0238.ms'
p1113
(lp1114
I395
asS'ufz_0013.ms'
p1115
(lp1116
I76163
asS'washington_0375.ms'
p1117
(lp1118
I1269
asS'fiocruz_0057.ms'
p1119
(lp1120
I4722
asS'eawag_0093.ms'
p1121
(lp1122
I4471
asS'eawag_0565.ms'
p1123
(lp1124
I4946344
aI21395875
aI13112841
asS'naist_0102.ms'
p1125
(lp1126
I1161
asS'eawag_0537.ms'
p1127
(lp1128
I65749
asS'ipb_0117.ms'
p1129
(lp1130
I4385
asS'washington_1129.ms'
p1131
(lp1132
I813
asS'riken_0362.ms'
p1133
(lp1134
I4444992
aI8066285
aI17261788
aI4885004
aI21522623
aI23326858
aI24845124
aI26324508
aI29314917
asS'riken_0438.ms'
p1135
(lp1136
I813
asS'washington_0455.ms'
p1137
(lp1138
I2797
aI21239667
asS'fiocruz_0003.ms'
p1139
(lp1140
I4444926
asS'eawag_0613.ms'
p1141
(lp1142
I228197
asS'ipb_0072.ms'
p1143
(lp1144
I9741
asS'eawag_0721.ms'
p1145
(lp1146
I4060
asS'eawag_0156.ms'
p1147
(lp1148
I24499
asS'eawag_0049.ms'
p1149
(lp1150
I82798
asS'washington_0841.ms'
p1151
(lp1152
I231947
asS'riken_1224.ms'
p1153
(lp1154
I4731961
asS'eawag_0594.ms'
p1155
(lp1156
I6231
asS'riken_0683.ms'
p1157
(lp1158
I456
asS'fiocruz_0035.ms'
p1159
(lp1160
I4972
asS'ipb_0105.ms'
p1161
(lp1162
I4923
asS'ipb_0003.ms'
p1163
(lp1164
I4444051
asS'ipb_0071.ms'
p1165
(lp1166
I217564
asS'eawag_0529.ms'
p1167
(lp1168
I106612
asS'eawag_0054.ms'
p1169
(lp1170
I77953
asS'riken_0507.ms'
p1171
(lp1172
I369
asS'washington_0822.ms'
p1173
(lp1174
I586875
asS'washington_1145.ms'
p1175
(lp1176
I4436338
asS'washington_0339.ms'
p1177
(lp1178
I3700
asS'env_027.ms'
p1179
(lp1180
I2162
asS'washington_0539.ms'
p1181
(lp1182
I4444099
asS'eawag_0306.ms'
p1183
(lp1184
I2163
asS'eawag_0671.ms'
p1185
(lp1186
I21539183
asS'washington_0599.ms'
p1187
(lp1188
I2114
asS'washington_0647.ms'
p1189
(lp1190
I2730
asS'ufz_0172.ms'
p1191
(lp1192
I66316
asS'fiocruz_0050.ms'
p1193
(lp1194
I12118954
asS'eawag_0281.ms'
p1195
(lp1196
I28552
asS'ufz_0006.ms'
p1197
(lp1198
I8098
asS'riken_0584.ms'
p1199
(lp1200
I440
asS'ufz_0057.ms'
p1201
(lp1202
I5381276
asS'ipb_0096.ms'
p1203
(lp1204
I13848793
asS'eawag_0638.ms'
p1205
(lp1206
I4895
asS'washington_1139.ms'
p1207
(lp1208
I4436338
asS'washington_0123.ms'
p1209
(lp1210
I559932
asS'ufz_0047.ms'
p1211
(lp1212
I11443
asS'ufz_0117.ms'
p1213
(lp1214
I68465
asS'metabolights_0006.ms'
p1215
(lp1216
I224592
asS'riken_0335.ms'
p1217
(lp1218
I4445025
asS'ufz_0183.ms'
p1219
(lp1220
I35728
asS'naist_0110.ms'
p1221
(lp1222
I804
asS'ufz_0149.ms'
p1223
(lp1224
I82701
asS'eawag_0277.ms'
p1225
(lp1226
I4455
asS'ufz_0202.ms'
p1227
(lp1228
I26001359
asS'eawag_0600.ms'
p1229
(lp1230
I3792
asS'eawag_0175.ms'
p1231
(lp1232
I4932269
asS'eawag_0297.ms'
p1233
(lp1234
sS'eawag_0732.ms'
p1235
(lp1236
I5313
aI21234306
aI21240711
asS'eawag_0647.ms'
p1237
(lp1238
I1038460
asS'Training-142.ms'
p1239
(lp1240
I21130168
asS'eawag_0451.ms'
p1241
(lp1242
I4677
asS'ufz_0097.ms'
p1243
(lp1244
I13854248
asS'eawag_0523.ms'
p1245
(lp1246
I9584394
asS'riken_0345.ms'
p1247
(lp1248
I4179589
asS'fiocruz_0090.ms'
p1249
(lp1250
I4356157
asS'jeol_0030.ms'
p1251
(lp1252
I12874
asS'washington_1025.ms'
p1253
(lp1254
I24844148
asS'washington_0012.ms'
p1255
(lp1256
I2181687
asS'eawag_0708.ms'
p1257
(lp1258
I94775
asS'eawag_0323.ms'
p1259
(lp1260
I1169
asS'washington_0191.ms'
p1261
(lp1262
I248
asS'ipb_0032.ms'
p1263
(lp1264
I591
asS'eawag_0105.ms'
p1265
(lp1266
I58478
asS'ipb_0121.ms'
p1267
(lp1268
I2285
asS'eawag_0498.ms'
p1269
(lp1270
I2935
asS'ufz_0132.ms'
p1271
(lp1272
I5237
asS'eawag_0144.ms'
p1273
(lp1274
I13520
asS'washington_0760.ms'
p1275
(lp1276
I600201
asS'eawag_0216.ms'
p1277
(lp1278
I2741972
asS'ufz_0248.ms'
p1279
(lp1280
I10447135
asS'eawag_0578.ms'
p1281
(lp1282
I21428111
asS'ipb_0135.ms'
p1283
(lp1284
I2265
asS'washington_1104.ms'
p1285
(lp1286
I3616
asS'washington_0771.ms'
p1287
(lp1288
I24093
asS'eawag_0358.ms'
p1289
(lp1290
I77730
asS'riken_0519.ms'
p1291
(lp1292
I802
asS'ufz_0189.ms'
p1293
(lp1294
I2162
asS'washington_0859.ms'
p1295
(lp1296
I385351
asS'ufz_0251.ms'
p1297
(lp1298
I6764
asS'eawag_0257.ms'
p1299
(lp1300
I29348
asS'washington_0509.ms'
p1301
(lp1302
I10082789
aI10082788
asS'washington_0957.ms'
p1303
(lp1304
I147700
aI5140798
aI29272126
aI28426465
asS'eawag_0799.ms'
p1305
(lp1306
I14674
asS'washington_0932.ms'
p1307
(lp1308
I2407712
asS'eawag_0147.ms'
p1309
(lp1310
I30932
asS'ufz_0103.ms'
p1311
(lp1312
I13835179
asS'riken_0674.ms'
p1313
(lp1314
I1600
asS'riken_0693.ms'
p1315
(lp1316
I963
asS'eawag_0430.ms'
p1317
(lp1318
I11677329
aI21258914
aI22906107
aI9875285
asS'washington_0891.ms'
p1319
(lp1320
I600074
asS'ufz_0024.ms'
p1321
(lp1322
I5889
asS'metabolights_0030.ms'
p1323
(lp1324
I4444764
asS'eawag_0135.ms'
p1325
(lp1326
I33695
asS'eawag_0081.ms'
p1327
(lp1328
I5376
asS'univ_0154.ms'
p1329
(lp1330
I140227
aI24715282
aI24844058
asS'eawag_0072.ms'
p1331
(lp1332
I4239420
asS'fiocruz_0036.ms'
p1333
(lp1334
I223408
asS'eawag_0180.ms'
p1335
(lp1336
I8113
asS'eawag_0507.ms'
p1337
(lp1338
I38123
asS'eawag_0274.ms'
p1339
(lp1340
I9832635
asS'eawag_0471.ms'
p1341
(lp1342
I304618
asS'washington_0474.ms'
p1343
(lp1344
I4583
asS'washington_0081.ms'
p1345
(lp1346
I14792
asS'eawag_0377.ms'
p1347
(lp1348
I21865404
asS'washington_0246.ms'
p1349
(lp1350
I4646
asS'eawag_0247.ms'
p1351
(lp1352
I3741
asS'washington_0532.ms'
p1353
(lp1354
I553573
asS'eawag_0447.ms'
p1355
(lp1356
I4258
asS'riken_0702.ms'
p1357
(lp1358
I13937419
asS'eawag_0546.ms'
p1359
(lp1360
I27749
asS'washington_1148.ms'
p1361
(lp1362
I600227
asS'ipb_0065.ms'
p1363
(lp1364
I1760
asS'ufz_0231.ms'
p1365
(lp1366
I4863
asS'eawag_0031.ms'
p1367
(lp1368
I25304
aI21108584
asS'washington_0720.ms'
p1369
(lp1370
I1065583
asS'riken_0483.ms'
p1371
(lp1372
I591
asS'riken_0354.ms'
p1373
(lp1374
I11446827
asS'ufz_0139.ms'
p1375
(lp1376
I2298772
aI5020878
aI48058940
asS'riken_0384.ms'
p1377
(lp1378
I689
asS'washington_0341.ms'
p1379
(lp1380
I2731
asS'washington_0487.ms'
p1381
(lp1382
I4215013
asS'jeol_0026.ms'
p1383
(lp1384
I4760
asS'fiocruz_0086.ms'
p1385
(lp1386
I640
asS'washington_0961.ms'
p1387
(lp1388
I391190
asS'eawag_0380.ms'
p1389
(lp1390
I6096
asS'washington_0835.ms'
p1391
(lp1392
I266344
asS'eawag_0152.ms'
p1393
(lp1394
I55933
asS'ipb_0015.ms'
p1395
(lp1396
I834
asS'metabolights_0025.ms'
p1397
(lp1398
I577
asS'univ_0185.ms'
p1399
(lp1400
I4479604
asS'fiocruz_0074.ms'
p1401
(lp1402
I21108555
aI21234225
aI21240703
asS'metabolights_0023.ms'
p1403
(lp1404
I811
aI21230620
asS'washington_0528.ms'
p1405
(lp1406
I5883850
asS'ufz_0141.ms'
p1407
(lp1408
I21157
asS'mpi_0043.ms'
p1409
(lp1410
I9887971
aI57267678
asS'fiocruz_0015.ms'
p1411
(lp1412
I3107
asS'washington_1007.ms'
p1413
(lp1414
I219298
asS'washington_0445.ms'
p1415
(lp1416
I872
asS'riken_0374.ms'
p1417
(lp1418
I25022
asS'eawag_0652.ms'
p1419
(lp1420
I2314362
asS'washington_1142.ms'
p1421
(lp1422
I600227
asS'washington_0274.ms'
p1423
(lp1424
I3523
asS'riken_0655.ms'
p1425
(lp1426
I4945457
aI24845918
aI31043926
aI34978324
aI21470013
asS'eawag_0411.ms'
p1427
(lp1428
I5394
aI21238837
asS'washington_1055.ms'
p1429
(lp1430
I600190
asS'ufz_0026.ms'
p1431
(lp1432
I8866
asS'eawag_0511.ms'
p1433
(lp1434
I7340
asS'washington_0941.ms'
p1435
(lp1436
I4246047
asS'riken_0537.ms'
p1437
(lp1438
I4444395
asS'riken_0742.ms'
p1439
(lp1440
I4590910
aI24842309
aI24842329
asS'washington_0301.ms'
p1441
(lp1442
I2957
asS'washington_0265.ms'
p1443
(lp1444
I3523
asS'ufz_0240.ms'
p1445
(lp1446
I8857
asS'fiocruz_0024.ms'
p1447
(lp1448
I3467
asS'eawag_0570.ms'
p1449
(lp1450
I8527
asS'eawag_0659.ms'
p1451
(lp1452
I7245
asS'ufz_0215.ms'
p1453
(lp1454
I5322
asS'washington_0022.ms'
p1455
(lp1456
I2181687
asS'eawag_0512.ms'
p1457
(lp1458
I7667
asS'eawag_0795.ms'
p1459
(lp1460
I15702
asS'riken_0365.ms'
p1461
(lp1462
I4532292
asS'eawag_0161.ms'
p1463
(lp1464
I83385
asS'riken_0368.ms'
p1465
(lp1466
I4527386
asS'washington_0919.ms'
p1467
(lp1468
I12944655
asS'eawag_0204.ms'
p1469
(lp1470
I5787
asS'eawag_0479.ms'
p1471
(lp1472
I38763
asS'eawag_0401.ms'
p1473
(lp1474
I3239
asS'eawag_0006.ms'
p1475
(lp1476
I55867
asS'washington_0753.ms'
p1477
(lp1478
I346415
asS'eawag_0711.ms'
p1479
(lp1480
I4467
asS'eawag_0374.ms'
p1481
(lp1482
I20493
asS'eawag_0128.ms'
p1483
(lp1484
I96906
asS'mpi_0012.ms'
p1485
(lp1486
I5681
aI5682
aI17347086
aI901
aI10239196
aI394833
aI393422
aI393660
aI394321
aI394669
aI99865
aI170341
aI4475165
aI4475166
aI5036484
aI393185
aI393358
aI8684153
aI17347087
aI23942251
aI29787581
aI30786128
aI31044211
aI34978411
aI21470075
aI23105279
aI23873986
aI17279526
aI9460288
aI5036485
aI392240
aI99864
asS'eawag_0420.ms'
p1487
(lp1488
I2468
asS'eawag_0702.ms'
p1489
(lp1490
I82853
asS'eawag_0182.ms'
p1491
(lp1492
I2684
asS'riken_0592.ms'
p1493
(lp1494
I2840822
asS'washington_0379.ms'
p1495
(lp1496
I3534
aI21108562
aI21395313
asS'eawag_0685.ms'
p1497
(lp1498
I66071
asS'ipb_0047.ms'
p1499
(lp1500
I128988
asS'ufz_0076.ms'
p1501
(lp1502
I8576
asS'washington_0928.ms'
p1503
(lp1504
I85660
asS'ipb_0004.ms'
p1505
(lp1506
I4444068
asS'washington_1065.ms'
p1507
(lp1508
I600190
asS'eawag_0090.ms'
p1509
(lp1510
I39402
asS'riken_0547.ms'
p1511
(lp1512
I13822698
asS'riken_0666.ms'
p1513
(lp1514
I4730614
asS'eawag_0038.ms'
p1515
(lp1516
I66024
asS'eawag_0331.ms'
p1517
(lp1518
I64300
asS'eawag_0196.ms'
p1519
(lp1520
I4957628
asS'eawag_0423.ms'
p1521
(lp1522
I23254552
asS'washington_0971.ms'
p1523
(lp1524
I2596219
asS'mpi_0044.ms'
p1525
(lp1526
I1121
asS'washington_0742.ms'
p1527
(lp1528
I141
asS'eawag_0492.ms'
p1529
(lp1530
I14709
aI21240662
asS'riken_0560.ms'
p1531
(lp1532
I11446824
asS'eawag_0061.ms'
p1533
(lp1534
I6950
asS'washington_0067.ms'
p1535
(lp1536
I2942098
asS'washington_0325.ms'
p1537
(lp1538
I235462
asS'washington_0845.ms'
p1539
(lp1540
I231947
asS'eawag_0716.ms'
p1541
(lp1542
I4617
asS'mpi_0077.ms'
p1543
(lp1544
I853
asS'ufz_0034.ms'
p1545
(lp1546
I60796
asS'eawag_0078.ms'
p1547
(lp1548
I4740
asS'eawag_0747.ms'
p1549
(lp1550
I16576
asS'washington_0023.ms'
p1551
(lp1552
I2351435
asS'ipb_0057.ms'
p1553
(lp1554
I2963362
asS'eawag_0311.ms'
p1555
(lp1556
I2724
asS'eawag_0757.ms'
p1557
(lp1558
I2933
asS'washington_0556.ms'
p1559
(lp1560
I208593
asS'eawag_0640.ms'
p1561
(lp1562
I20531
asS'ufz_0144.ms'
p1563
(lp1564
I31773
asS'washington_0454.ms'
p1565
(lp1566
I4724
asS'ufz_0111.ms'
p1567
(lp1568
I21106470
asS'mpi_0024.ms'
p1569
(lp1570
I2263
asS'ufz_0265.ms'
p1571
(lp1572
I13839012
asS'ufz_0130.ms'
p1573
(lp1574
I82858
asS'eawag_0155.ms'
p1575
(lp1576
I21157
asS'eawag_0373.ms'
p1577
(lp1578
I2629
asS'metabolights_0040.ms'
p1579
(lp1580
I5369
asS'ipb_0063.ms'
p1581
(lp1582
I1166
asS'eawag_0463.ms'
p1583
(lp1584
I13115
asS'washington_0412.ms'
p1585
(lp1586
I21428129
aI21240885
asS'ipb_0094.ms'
p1587
(lp1588
I4444051
asS'ipb_0035.ms'
p1589
(lp1590
I5408
asS'ipb_0038.ms'
p1591
(lp1592
I1072
asS'eawag_0366.ms'
p1593
(lp1594
I3966
asS'ufz_0125.ms'
p1595
(lp1596
I13035
asS'ufz_0152.ms'
p1597
(lp1598
I4760
asS'univ_0194.ms'
p1599
(lp1600
I4444362
aI8546981
aI5160552
aI17472803
aI21241943
aI22870914
aI5422540
aI5422541
aI5422542
aI5422543
aI8275805
aI8408085
aI10142669
aI5036872
aI26329537
aI28473632
aI29314924
aI31037993
aI23170953
aI23248842
aI23975948
aI24844777
aI24844825
aI24958743
aI21522630
aI21239221
aI21239253
asS'mpi_0079.ms'
p1601
(lp1602
I2503835
asS'washington_0004.ms'
p1603
(lp1604
I2114844
asS'riken_0708.ms'
p1605
(lp1606
I180
asS'eawag_0068.ms'
p1607
(lp1608
I5026
asS'ufz_0290.ms'
p1609
(lp1610
I15212936
asS'washington_0280.ms'
p1611
(lp1612
I44304
asS'eawag_0389.ms'
p1613
(lp1614
I917
asS'riken_0719.ms'
p1615
(lp1616
I3581718
asS'riken_0573.ms'
p1617
(lp1618
I115490
asS'eawag_0693.ms'
p1619
(lp1620
I12586
asS'fiocruz_0029.ms'
p1621
(lp1622
I6825
asS'metabolights_0037.ms'
p1623
(lp1624
I18889
asS'washington_0446.ms'
p1625
(lp1626
I4724
asS'eawag_0317.ms'
p1627
(lp1628
I2250
aI21239632
asS'eawag_0788.ms'
p1629
(lp1630
I8171613
asS'eawag_0236.ms'
p1631
(lp1632
I2908
asS'eawag_0347.ms'
p1633
(lp1634
I9481667
asS'washington_0768.ms'
p1635
(lp1636
I591
asS'eawag_0720.ms'
p1637
(lp1638
I50727
asS'eawag_0554.ms'
p1639
(lp1640
I11325979
asS'riken_0551.ms'
p1641
(lp1642
I4575318
asS'eawag_0625.ms'
p1643
(lp1644
I3918
asS'riken_0712.ms'
p1645
(lp1646
I16736047
asS'univ_0153.ms'
p1647
(lp1648
I24843831
asS'eawag_0086.ms'
p1649
(lp1650
I3693
asS'eawag_0581.ms'
p1651
(lp1652
I151316
asS'mpi_0016.ms'
p1653
(lp1654
I9055
asS'eawag_0187.ms'
p1655
(lp1656
I17340103
asS'washington_0670.ms'
p1657
(lp1658
I4444926
asS'eawag_0595.ms'
p1659
(lp1660
I4663
aI21230467
asS'mpi_0105.ms'
p1661
(lp1662
I834
asS'eawag_0406.ms'
p1663
(lp1664
I4473
asS'eawag_0220.ms'
p1665
(lp1666
I28290253
asS'riken_0510.ms'
p1667
(lp1668
I1172
asS'eawag_0777.ms'
p1669
(lp1670
I3791
asS'washington_0389.ms'
p1671
(lp1672
I2452
asS'washington_0628.ms'
p1673
(lp1674
I3288
asS'riken_1215.ms'
p1675
(lp1676
I4587618
aI19348181
aI9800637
aI18584682
aI8399244
aI24844583
aI24844584
aI30785824
asS'washington_1062.ms'
p1677
(lp1678
I4880412
asS'washington_0398.ms'
p1679
(lp1680
I16498838
aI390760
aI21171653
aI4925512
aI29045
aI26359858
aI29215715
aI600429
aI4478634
aI4572813
aI4642538
aI5036643
aI5037201
aI24921419
aI30809789
aI26370851
asS'washington_0132.ms'
p1681
(lp1682
I1065584
asS'riken_0593.ms'
p1683
(lp1684
I167837
asS'eawag_0043.ms'
p1685
(lp1686
I38839
asS'env_016.ms'
p1687
(lp1688
I4471
asS'riken_0484.ms'
p1689
(lp1690
I718
asS'ufz_0040.ms'
p1691
(lp1692
I13854248
asS'ufz_0109.ms'
p1693
(lp1694
I185
asS'eawag_0458.ms'
p1695
(lp1696
I10443016
aI21221461
asS'eawag_0648.ms'
p1697
(lp1698
I52324370
asS'eawag_0774.ms'
p1699
(lp1700
I4622
asS'washington_0382.ms'
p1701
(lp1702
I9741
asS'riken_1216.ms'
p1703
(lp1704
I4477252
aI18699309
aI8402084
aI9038803
aI24844586
asS'ufz_0182.ms'
p1705
(lp1706
I2121
asS'mpi_0089.ms'
p1707
(lp1708
I14677
asS'riken_0630.ms'
p1709
(lp1710
I7683
asS'eawag_0765.ms'
p1711
(lp1712
I6520
asS'eawag_0610.ms'
p1713
(lp1714
I3057
asS'eawag_0601.ms'
p1715
(lp1716
I3091
asS'eawag_0733.ms'
p1717
(lp1718
I148958
asS'fiocruz_0046.ms'
p1719
(lp1720
I4819
asS'eawag_0485.ms'
p1721
(lp1722
I36278
asS'ufz_0012.ms'
p1723
(lp1724
I73147
asS'eawag_0534.ms'
p1725
(lp1726
I184716
asS'washington_0737.ms'
p1727
(lp1728
I141
asS'washington_0933.ms'
p1729
(lp1730
I3520425
asS'riken_0334.ms'
p1731
(lp1732
I114193
asS'ipb_0122.ms'
p1733
(lp1734
I2129
asS'washington_0477.ms'
p1735
(lp1736
I97096
asS'washington_0821.ms'
p1737
(lp1738
I2174631
asS'eawag_0303.ms'
p1739
(lp1740
I5179
aI21240394
asS'washington_0122.ms'
p1741
(lp1742
I21428561
asS'ipb_0106.ms'
p1743
(lp1744
I21428561
asS'eawag_0174.ms'
p1745
(lp1746
I4324299
asS'riken_0530.ms'
p1747
(lp1748
I116
asS'ipb_0132.ms'
p1749
(lp1750
I5408
asS'washington_0025.ms'
p1751
(lp1752
I6502
asS'riken_0729.ms'
p1753
(lp1754
I4731961
asS'washington_0552.ms'
p1755
(lp1756
I2640438
asS'washington_0946.ms'
p1757
(lp1758
I600159
asS'fiocruz_0002.ms'
p1759
(lp1760
I248
asS'eawag_0579.ms'
p1761
(lp1762
I3552
aI21234189
asS'eawag_0741.ms'
p1763
(lp1764
I20162
asS'eawag_0359.ms'
p1765
(lp1766
I94755
asS'ufz_0005.ms'
p1767
(lp1768
I76094
asS'washington_0761.ms'
p1769
(lp1770
I600396
asS'ipb_0110.ms'
p1771
(lp1772
I12041
aI7939
aI5022871
aI5145910
aI402019
aI17340748
aI21170574
aI21474968
aI3900356
aI8208452
aI30782627
aI24890495
aI22901214
aI23124727
aI49071168
aI29314849
aI8072432
aI8163206
aI5036517
aI5036948
aI428488
aI8994
aI136028
aI22875092
aI8548270
aI8592996
aI8638255
aI8899089
aI9073172
aI9977782
aI10143637
aI13118209
aI22900884
aI21238834
aI17340794
aI17346666
aI17346672
aI17466687
aI411030
aI8008846
aI8209701
aI49071544
aI57267600
aI23319356
aI23718317
aI24589321
aI24765647
aI24823419
aI26368539
aI29305340
aI34524698
asS'ufz_0188.ms'
p1773
(lp1774
I4422
asS'washington_0306.ms'
p1775
(lp1776
I4972
asS'eawag_0253.ms'
p1777
(lp1778
I16799
asS'ufz_0250.ms'
p1779
(lp1780
I8435
asS'washington_0598.ms'
p1781
(lp1782
I4504
aI21234165
aI21238993
aI21240148
asS'metabolights_0005.ms'
p1783
(lp1784
I7141
asS'washington_1024.ms'
p1785
(lp1786
I219298
asS'fiocruz_0018.ms'
p1787
(lp1788
I4444933
asS'washington_0218.ms'
p1789
(lp1790
I589031
asS'eawag_0528.ms'
p1791
(lp1792
I29822
asS'riken_0518.ms'
p1793
(lp1794
I1103
asS'riken_0587.ms'
p1795
(lp1796
I3337780
asS'washington_0921.ms'
p1797
(lp1798
I2407712
asS'eawag_0075.ms'
p1799
(lp1800
I3852779
aI21537388
asS'ufz_0173.ms'
p1801
(lp1802
I35265
asS'eawag_0670.ms'
p1803
(lp1804
I2609
asS'eawag_0781.ms'
p1805
(lp1806
I4333
asS'eawag_0294.ms'
p1807
(lp1808
I77719
asS'riken_0684.ms'
p1809
(lp1810
I9001
asS'fiocruz_0051.ms'
p1811
(lp1812
I323238
asS'ufz_0101.ms'
p1813
(lp1814
I6748
asS'ufz_0056.ms'
p1815
(lp1816
I16867
asS'eawag_0573.ms'
p1817
(lp1818
I2619
asS'riken_0679.ms'
p1819
(lp1820
I1002
asS'washington_0759.ms'
p1821
(lp1822
I346415
asS'washington_0486.ms'
p1823
(lp1824
I4583
asS'washington_0714.ms'
p1825
(lp1826
I1116
asS'washington_0080.ms'
p1827
(lp1828
I559096
aI10254876
aI17340494
aI10194137
aI6747
aI147139
aI391268
aI83737
aI4479164
aI8507075
aI8039465
aI4642496
aI23074000
aI26340469
aI17574365
aI30772471
aI13082749
aI1363700
aI4478467
aI1180346
aI1363699
aI13082739
aI5367486
aI31043912
aI52083892
aI57257200
aI30772406
asS'riken_0563.ms'
p1829
(lp1830
I8181964
aI21522627
aI24624244
aI24844794
aI24844864
asS'eawag_0286.ms'
p1831
(lp1832
I54861
asS'riken_0520.ms'
p1833
(lp1834
I5328
asS'washington_0740.ms'
p1835
(lp1836
I61532
asS'riken_0355.ms'
p1837
(lp1838
I4851695
asS'riken_1234.ms'
p1839
(lp1840
I16736047
asS'riken_0706.ms'
p1841
(lp1842
I132
asS'riken_0698.ms'
p1843
(lp1844
I989
asS'washington_0566.ms'
p1845
(lp1846
I2640438
asS'eawag_0522.ms'
p1847
(lp1848
I9112846
asS'eawag_0125.ms'
p1849
(lp1850
I1994
asS'ufz_0096.ms'
p1851
(lp1852
I21111816
asS'riken_0616.ms'
p1853
(lp1854
I21232346
asS'eawag_0433.ms'
p1855
(lp1856
I26461630
asS'washington_0351.ms'
p1857
(lp1858
I8622
aI558737
aI83744
aI107761
aI2319713
aI220387
aI4954551
aI5140804
aI2279603
aI4642516
aI107697
aI402916
aI559233
aI839561
aI1046018
aI555755
aI2496819
aI5025102
aI5145721
aI5415699
aI8017242
aI8626215
aI5558761
aI10038017
aI10039693
aI10043551
aI23260712
aI26359377
aI49072131
aI10043584
aI10043901
aI10044749
aI10236466
aI10039692
aI5885627
aI5885628
aI10035338
aI10038016
aI5558760
aI5415698
aI5026738
aI1064957
asS'washington_0931.ms'
p1859
(lp1860
I4246047
asS'riken_1227.ms'
p1861
(lp1862
I4510257
asS'fiocruz_0091.ms'
p1863
(lp1864
I2336
asS'eawag_0013.ms'
p1865
(lp1866
I28287
asS'eawag_0316.ms'
p1867
(lp1868
I13852819
asS'univ_0198.ms'
p1869
(lp1870
I120190
asS'env_008.ms'
p1871
(lp1872
I4133
asS'eawag_0688.ms'
p1873
(lp1874
I78359
asS'eawag_0322.ms'
p1875
(lp1876
I3953
asS'ufz_0064.ms'
p1877
(lp1878
I924
asS'eawag_0104.ms'
p1879
(lp1880
I60219
asS'ufz_0249.ms'
p1881
(lp1882
I12723
asS'ipb_0120.ms'
p1883
(lp1884
I17491
asS'ufz_0133.ms'
p1885
(lp1886
I30816
asS'ipb_0053.ms'
p1887
(lp1888
I3698
asS'washington_1137.ms'
p1889
(lp1890
I4444
aI21240258
asS'washington_1107.ms'
p1891
(lp1892
I3044159
asS'riken_0721.ms'
p1893
(lp1894
I826
asS'eawag_0634.ms'
p1895
(lp1896
I4388
asS'eawag_0195.ms'
p1897
(lp1898
I97278
asS'washington_0264.ms'
p1899
(lp1900
I44304
asS'riken_0375.ms'
p1901
(lp1902
I15967
asS'riken_0741.ms'
p1903
(lp1904
I14732024
asS'naist_0100.ms'
p1905
(lp1906
I227
asS'eawag_0750.ms'
p1907
(lp1908
I2653
asS'riken_0615.ms'
p1909
(lp1910
I3124759
aI21232075
asS'eawag_0132.ms'
p1911
(lp1912
I13907085
asS'washington_0119.ms'
p1913
(lp1914
I10216
asS'eawag_0707.ms'
p1915
(lp1916
I6658
asS'eawag_0504.ms'
p1917
(lp1918
I4737
asS'eawag_0410.ms'
p1919
(lp1920
I5273
asS'ufz_0027.ms'
p1921
(lp1922
I21111842
asS'washington_0817.ms'
p1923
(lp1924
I13391
asS'univ_0135.ms'
p1925
(lp1926
I4624
asS'eawag_0028.ms'
p1927
(lp1928
I30816
asS'ufz_0271.ms'
p1929
(lp1930
I21230427
asS'eawag_0630.ms'
p1931
(lp1932
I2010
asS'riken_1242.ms'
p1933
(lp1934
I13095553
aI10145813
aI24844920
asS'eawag_0754.ms'
p1935
(lp1936
I2511
asS'ufz_0102.ms'
p1937
(lp1938
I6844
asS'ufz_0232.ms'
p1939
(lp1940
I3949
asS'riken_0692.ms'
p1941
(lp1942
I1043
asS'fiocruz_0085.ms'
p1943
(lp1944
I13876103
asS'ipb_0147.ms'
p1945
(lp1946
I4444919
asS'eawag_0439.ms'
p1947
(lp1948
I82795
asS'ufz_0192.ms'
p1949
(lp1950
I4777
asS'jeol_0016.ms'
p1951
(lp1952
I4226103
asS'metabolights_0014.ms'
p1953
(lp1954
I21230392
aI21230584
asS'eawag_0452.ms'
p1955
(lp1956
I5076
asS'jeol_0004.ms'
p1957
(lp1958
I58671
asS'washington_0956.ms'
p1959
(lp1960
I12944943
asS'eawag_0470.ms'
p1961
(lp1962
I6436
asS'eawag_0727.ms'
p1963
(lp1964
I2872
asS'eawag_0053.ms'
p1965
(lp1966
I26502395
asS'washington_0336.ms'
p1967
(lp1968
I2731
asS'ufz_0203.ms'
p1969
(lp1970
I1906
asS'riken_0691.ms'
p1971
(lp1972
I28534376
asS'eawag_0807.ms'
p1973
(lp1974
I72518
asS'eawag_0396.ms'
p1975
(lp1976
I2563
asS'ufz_0306.ms'
p1977
(lp1978
I6952
asS'washington_0113.ms'
p1979
(lp1980
I559932
asS'washington_0601.ms'
p1981
(lp1982
I5328
asS'washington_0923.ms'
p1983
(lp1984
I600391
asS'eawag_0328.ms'
p1985
(lp1986
I4899
asS'eawag_0383.ms'
p1987
(lp1988
I7266
asS'ipb_0005.ms'
p1989
(lp1990
I133307
asS'washington_0535.ms'
p1991
(lp1992
I890
asS'riken_0750.ms'
p1993
(lp1994
I2979142
aI21537309
asS'washington_0978.ms'
p1995
(lp1996
I391190
asS'riken_0501.ms'
p1997
(lp1998
I942
asS'washington_0378.ms'
p1999
(lp2000
I2452
asS'eawag_0300.ms'
p2001
(lp2002
I431
asS'eawag_0099.ms'
p2003
(lp2004
I3600
aI21234516
asS'fiocruz_0065.ms'
p2005
(lp2006
I10250
asS'eawag_0639.ms'
p2007
(lp2008
I6577
asS'ipb_0014.ms'
p2009
(lp2010
I1148
asS'fiocruz_0075.ms'
p2011
(lp2012
I18278
asS'eawag_0796.ms'
p2013
(lp2014
I82827
asS'washington_0007.ms'
p2015
(lp2016
I563381
asS'washington_0275.ms'
p2017
(lp2018
I2442
asS'riken_0437.ms'
p2019
(lp2020
I656
asS'washington_0407.ms'
p2021
(lp2022
I21428129
aI21240885
asS'ipb_0025.ms'
p2023
(lp2024
I810
asS'ipb_0017.ms'
p2025
(lp2026
I597
asS'eawag_0032.ms'
p2027
(lp2028
I77697
asS'ipb_0056.ms'
p2029
(lp2030
I4444102
asS'eawag_0746.ms'
p2031
(lp2032
I3177
asS'washington_1112.ms'
p2033
(lp2034
I600080
asS'fiocruz_0045.ms'
p2035
(lp2036
I90428
asS'washington_1059.ms'
p2037
(lp2038
I97753
asS'washington_0974.ms'
p2039
(lp2040
I12944943
asS'washington_0480.ms'
p2041
(lp2042
I4583
asS'eawag_0617.ms'
p2043
(lp2044
I4322
asS'eawag_0734.ms'
p2045
(lp2046
I5345
asS'eawag_0641.ms'
p2047
(lp2048
I11463
asS'fiocruz_0004.ms'
p2049
(lp2050
I13848793
asS'washington_0245.ms'
p2051
(lp2052
I96133
asS'eawag_0739.ms'
p2053
(lp2054
I5533
asS'jeol_0017.ms'
p2055
(lp2056
I17286487
asS'eawag_0525.ms'
p2057
(lp2058
I77938
asS'washington_0505.ms'
p2059
(lp2060
I901682
asS'riken_0404.ms'
p2061
(lp2062
I4444190
asS'riken_0591.ms'
p2063
(lp2064
I8075448
aI8053946
asS'eawag_0493.ms'
p2065
(lp2066
I4470
asS'eawag_0658.ms'
p2067
(lp2068
I5708
asS'ufz_0179.ms'
p2069
(lp2070
I2542991
asS'ufz_0214.ms'
p2071
(lp2072
I3548
asS'ufz_0291.ms'
p2073
(lp2074
I7266
asS'riken_0642.ms'
p2075
(lp2076
I2806159
asS'riken_0601.ms'
p2077
(lp2078
I1104
asS'eawag_0046.ms'
p2079
(lp2080
I49469
asS'riken_0364.ms'
p2081
(lp2082
I391782
aI4478534
aI8043200
aI8471989
aI21542562
aI24842054
aI24842063
aI31105763
asS'washington_0741.ms'
p2083
(lp2084
I588780
asS'eawag_0160.ms'
p2085
(lp2086
I2710
asS'washington_0435.ms'
p2087
(lp2088
I2424
asS'washington_0896.ms'
p2089
(lp2090
I600222
asS'washington_1016.ms'
p2091
(lp2092
I219298
asS'eawag_0491.ms'
p2093
(lp2094
I3922
asS'ufz_0224.ms'
p2095
(lp2096
I65525
asS'eawag_0626.ms'
p2097
(lp2098
I364475
asS'eawag_0309.ms'
p2099
(lp2100
I3032042
asS'env_020.ms'
p2101
(lp2102
I7667
asS'eawag_0545.ms'
p2103
(lp2104
I21230630
aI21238238
aI21240790
asS'washington_0202.ms'
p2105
(lp2106
I90925
asS'eawag_0692.ms'
p2107
(lp2108
I559260
asS'washington_0513.ms'
p2109
(lp2110
I901682
asS'eawag_0718.ms'
p2111
(lp2112
I6033
asS'eawag_0332.ms'
p2113
(lp2114
I1999
asS'eawag_0715.ms'
p2115
(lp2116
I1556
asS'ipb_0137.ms'
p2117
(lp2118
I3971
asS'riken_0509.ms'
p2119
(lp2120
I1025
asS'ufz_0158.ms'
p2121
(lp2122
I77680
asS'washington_0529.ms'
p2123
(lp2124
I890
asS'metabolights_0036.ms'
p2125
(lp2126
I843
asS'washington_0066.ms'
p2127
(lp2128
I119732
asS'ufz_0266.ms'
p2129
(lp2130
I5791
aI9789
aI211854
aI327870
aI23937216
aI2299087
aI1099859
aI8238549
aI8645121
aI9689579
aI10035776
aI10036612
aI10043752
aI10043753
aI10043754
aI10044828
aI10064908
aI10064909
aI10094589
aI162263
aI620545
aI794113
aI794114
aI794115
aI5023352
aI32819505
aI35147838
aI48063868
aI48063869
aI57268865
aI24533071
aI26369196
aI31047216
aI553583
aI13628409
aI19952233
asS'eawag_0592.ms'
p2131
(lp2132
I395
asS'riken_0466.ms'
p2133
(lp2134
I3375
asS'eawag_0466.ms'
p2135
(lp2136
I27326
asS'mpi_0031.ms'
p2137
(lp2138
I21428561
asS'washington_0005.ms'
p2139
(lp2140
I6502
asS'eawag_0237.ms'
p2141
(lp2142
I84112
asS'riken_0337.ms'
p2143
(lp2144
I9833
asS'washington_0121.ms'
p2145
(lp2146
I4444756
asS'univ_0182.ms'
p2147
(lp2148
I11446825
asS'eawag_0091.ms'
p2149
(lp2150
I4133
asS'ufz_0126.ms'
p2151
(lp2152
I34116
asS'eawag_0651.ms'
p2153
(lp2154
I29787171
asS'ipb_0093.ms'
p2155
(lp2156
I2424
asS'washington_1063.ms'
p2157
(lp2158
I453555
asS'riken_0485.ms'
p2159
(lp2160
I755
asS'ufz_0112.ms'
p2161
(lp2162
I8857
asS'riken_0416.ms'
p2163
(lp2164
I1023
asS'eawag_0066.ms'
p2165
(lp2166
I4777
asS'ufz_0041.ms'
p2167
(lp2168
I9349
asS'washington_0868.ms'
p2169
(lp2170
I130302
asS'ufz_0108.ms'
p2171
(lp2172
I158326
asS'eawag_0228.ms'
p2173
(lp2174
I2804
aI21138158
asS'washington_0551.ms'
p2175
(lp2176
I14677
asS'eawag_0679.ms'
p2177
(lp2178
I3438
asS'ufz_0191.ms'
p2179
(lp2180
I4529
asS'eawag_0058.ms'
p2181
(lp2182
I8470
asS'washington_1130.ms'
p2183
(lp2184
I4444
aI21240258
asS'mpi_0075.ms'
p2185
(lp2186
I9887971
aI57267678
asS'eawag_0287.ms'
p2187
(lp2188
I9594484
asS'eawag_0024.ms'
p2189
(lp2190
I1911
asS'washington_0968.ms'
p2191
(lp2192
I4444263
asS'eawag_0758.ms'
p2193
(lp2194
I50725
asS'washington_0414.ms'
p2195
(lp2196
I907
asS'washington_0072.ms'
p2197
(lp2198
I4444362
aI8546981
aI5160552
aI17472803
aI21241943
aI22870914
aI5422540
aI5422541
aI5422542
aI5422543
aI8275805
aI8408085
aI10142669
aI5036872
aI26329537
aI28473632
aI29314924
aI31037993
aI23170953
aI23248842
aI23975948
aI24844777
aI24844825
aI24958743
aI21522630
aI21239221
aI21239253
asS'ipb_0034.ms'
p2199
(lp2200
I548
asS'riken_1246.ms'
p2201
(lp2202
I8503230
aI28482009
aI24844850
aI24844945
asS'ufz_0153.ms'
p2203
(lp2204
I9703
asS'mpi_0000.ms'
p2205
(lp2206
I12041
aI7939
aI5022871
aI5145910
aI402019
aI17340748
aI21170574
aI21474968
aI3900356
aI8208452
aI30782627
aI24890495
aI22901214
aI23124727
aI49071168
aI29314849
aI8072432
aI8163206
aI5036517
aI5036948
aI428488
aI8994
aI136028
aI22875092
aI8548270
aI8592996
aI8638255
aI8899089
aI9073172
aI9977782
aI10143637
aI13118209
aI22900884
aI21238834
aI17340794
aI17346666
aI17346672
aI17466687
aI411030
aI8008846
aI8209701
aI49071544
aI57267600
aI23319356
aI23718317
aI24589321
aI24765647
aI24823419
aI26368539
aI29305340
aI34524698
asS'washington_1144.ms'
p2207
(lp2208
I3386133
asS'washington_0050.ms'
p2209
(lp2210
I1043
asS'washington_0235.ms'
p2211
(lp2212
I4646
asS'washington_0814.ms'
p2213
(lp2214
I228923
asS'washington_0187.ms'
p2215
(lp2216
I3467
asS'ufz_0081.ms'
p2217
(lp2218
I13860817
asS'eawag_0361.ms'
p2219
(lp2220
I15417
asS'metabolights_0042.ms'
p2221
(lp2222
I4444051
asS'riken_0531.ms'
p2223
(lp2224
I134
asS'washington_0820.ms'
p2225
(lp2226
I228923
asS'eawag_0484.ms'
p2227
(lp2228
I43172
asS'eawag_0004.ms'
p2229
(lp2230
I156619
asS'riken_0583.ms'
p2231
(lp2232
I817
aI21239212
asS'washington_0024.ms'
p2233
(lp2234
I2114844
asS'washington_0337.ms'
p2235
(lp2236
I235462
asS'eawag_0240.ms'
p2237
(lp2238
I7971623
asS'washington_0195.ms'
p2239
(lp2240
I197874
asS'eawag_0290.ms'
p2241
(lp2242
I4024
asS'washington_0962.ms'
p2243
(lp2244
I2596219
asS'eawag_0087.ms'
p2245
(lp2246
I3584
asS'washington_0017.ms'
p2247
(lp2248
I563381
asS'eawag_0580.ms'
p2249
(lp2250
I4444448
asS'washington_0524.ms'
p2251
(lp2252
I3693
asS'eawag_0186.ms'
p2253
(lp2254
I3659700
aI21240412
aI21240816
aI21537423
asS'eawag_0116.ms'
p2255
(lp2256
I5027
asS'jeol_0003.ms'
p2257
(lp2258
I21171652
aI7823036
aI28591507
aI23976346
asS'eawag_0477.ms'
p2259
(lp2260
I7279
asS'eawag_0407.ms'
p2261
(lp2262
I3380655
aI21537408
asS'mpi_0058.ms'
p2263
(lp2264
I201
asS'ipb_0067.ms'
p2265
(lp2266
I5013
asS'fiocruz_0069.ms'
p2267
(lp2268
I440205
asS'ufz_0200.ms'
p2269
(lp2270
I5145
asS'eawag_0221.ms'
p2271
(lp2272
I3949
asS'riken_0511.ms'
p2273
(lp2274
I21233849
aI21232441
aI21230548
aI21231999
asS'washington_0327.ms'
p2275
(lp2276
I3700
asS'washington_0719.ms'
p2277
(lp2278
I70356
asS'riken_0495.ms'
p2279
(lp2280
I3892
asS'eawag_0704.ms'
p2281
(lp2282
I66323
asS'eawag_0074.ms'
p2283
(lp2284
I2182
asS'ufz_0198.ms'
p2285
(lp2286
I3693
asS'eawag_0780.ms'
p2287
(lp2288
I3897
asS'washington_0219.ms'
p2289
(lp2290
I589032
asS'riken_0710.ms'
p2291
(lp2292
I106510
asS'eawag_0271.ms'
p2293
(lp2294
I32675207
asS'washington_0014.ms'
p2295
(lp2296
I2114844
asS'riken_0685.ms'
p2297
(lp2298
I10960
asS'washington_0044.ms'
p2299
(lp2300
I4444444
asS'ufz_0181.ms'
p2301
(lp2302
I2662
asS'ufz_0100.ms'
p2303
(lp2304
I13842613
asS'riken_0549.ms'
p2305
(lp2306
I4851695
asS'eawag_0107.ms'
p2307
(lp2308
I2238
asS'washington_0972.ms'
p2309
(lp2310
I12944953
asS'riken_0678.ms'
p2311
(lp2312
I491986
asS'eawag_0775.ms'
p2313
(lp2314
I34911
asS'fiocruz_0012.ms'
p2315
(lp2316
I56166
asS'riken_1217.ms'
p2317
(lp2318
I4478707
aI8350835
aI4980229
aI13389461
aI22234708
aI24844435
aI24844535
asS'eawag_0295.ms'
p2319
(lp2320
I109219
asS'ufz_0255.ms'
p2321
(lp2322
I678
aI21230545
aI21236470
asS'eawag_0370.ms'
p2323
(lp2324
I37801
asS'eawag_0764.ms'
p2325
(lp2326
I13837329
asS'jeol_0009.ms'
p2327
(lp2328
I23776
asS'eawag_0567.ms'
p2329
(lp2330
I3324998
asS'eawag_0557.ms'
p2331
(lp2332
I2550
aI21240869
asS'riken_0578.ms'
p2333
(lp2334
I625
aI21230609
asS'eawag_0535.ms'
p2335
(lp2336
I83452
asS'eawag_0378.ms'
p2337
(lp2338
I34448786
asS'ipb_0022.ms'
p2339
(lp2340
I227
asS'eawag_0636.ms'
p2341
(lp2342
I3914
asS'riken_0673.ms'
p2343
(lp2344
I3598122
asS'washington_0270.ms'
p2345
(lp2346
I10439078
asS'env_010.ms'
p2347
(lp2348
I8254
asS'eawag_0432.ms'
p2349
(lp2350
I184726
asS'riken_0521.ms'
p2351
(lp2352
I5408
asS'fiocruz_0023.ms'
p2353
(lp2354
I4444445
asS'eawag_0698.ms'
p2355
(lp2356
I7092
asS'eawag_0012.ms'
p2357
(lp2358
I2298772
aI5020878
aI48058940
asS'washington_0380.ms'
p2359
(lp2360
I3324
asS'washington_0164.ms'
p2361
(lp2362
I4122
asS'eawag_0689.ms'
p2363
(lp2364
I3765
asS'washington_0350.ms'
p2365
(lp2366
I395
asS'mpi_0022.ms'
p2367
(lp2368
I17491
asS'eawag_0787.ms'
p2369
(lp2370
I4424
asS'washington_0656.ms'
p2371
(lp2372
I2730
asS'fiocruz_0083.ms'
p2373
(lp2374
I21428129
aI21240885
asS'eawag_0572.ms'
p2375
(lp2376
I4751
aI21230582
asS'eawag_0465.ms'
p2377
(lp2378
I15010
asS'eawag_0143.ms'
p2379
(lp2380
I70809
asS'ipb_0111.ms'
p2381
(lp2382
I5245727
aI21240153
asS'washington_0307.ms'
p2383
(lp2384
I2957
asS'washington_0938.ms'
p2385
(lp2386
I85660
asS'washington_1097.ms'
p2387
(lp2388
I3044159
asS'eawag_0673.ms'
p2389
(lp2390
I9202762
asS'washington_0400.ms'
p2391
(lp2392
I21428129
aI21240885
asS'mpi_0042.ms'
p2393
(lp2394
I24842247
aI28286609
asS'fiocruz_0019.ms'
p2395
(lp2396
I382521
asS'riken_1243.ms'
p2397
(lp2398
I4678039
aI4474598
aI24608097
aI24844903
aI30785726
asS'washington_1138.ms'
p2399
(lp2400
I3386133
asS'ipb_0146.ms'
p2401
(lp2402
I1166
asS'eawag_0505.ms'
p2403
(lp2404
I114471
asS'eawag_0438.ms'
p2405
(lp2406
I4953549
asS'ipb_0112.ms'
p2407
(lp2408
I6754
asS'eawag_0177.ms'
p2409
(lp2410
I4517
asS'riken_1237.ms'
p2411
(lp2412
I9838
asS'eawag_0445.ms'
p2413
(lp2414
I292
asS'eawag_0712.ms'
p2415
(lp2416
I29786131
asS'washington_0304.ms'
p2417
(lp2418
I4508522
asS'washington_0290.ms'
p2419
(lp2420
I64715
asS'ufz_0087.ms'
p2421
(lp2422
I6780
asS'eawag_0341.ms'
p2423
(lp2424
I14198632
asS'eawag_0726.ms'
p2425
(lp2426
I2347
asS'riken_1221.ms'
p2427
(lp2428
I4444992
aI8066285
aI17261788
aI4885004
aI21522623
aI23326858
aI24845124
aI26324508
aI29314917
asS'eawag_0052.ms'
p2429
(lp2430
I52083420
asS'ufz_0143.ms'
p2431
(lp2432
I3171
asS'fiocruz_0061.ms'
p2433
(lp2434
I201668
asS'washington_0592.ms'
p2435
(lp2436
I5328
asS'ufz_0174.ms'
p2437
(lp2438
I184713
asS'riken_0608.ms'
p2439
(lp2440
I21230437
aI21232571
asS'washington_0885.ms'
p2441
(lp2442
I137121
asS'eawag_0209.ms'
p2443
(lp2444
I36319
asS'ufz_0218.ms'
p2445
(lp2446
I5376
asS'riken_0562.ms'
p2447
(lp2448
I4527386
asS'washington_0261.ms'
p2449
(lp2450
I10439078
asS'washington_0758.ms'
p2451
(lp2452
I600396
asS'eawag_0165.ms'
p2453
(lp2454
I3222
asS'ufz_0244.ms'
p2455
(lp2456
I7292
asS'washington_0045.ms'
p2457
(lp2458
I1043
asS'ufz_0121.ms'
p2459
(lp2460
I3008
asS'washington_0530.ms'
p2461
(lp2462
I2425
asS'ufz_0286.ms'
p2463
(lp2464
I8381
asS'eawag_0394.ms'
p2465
(lp2466
I2312
asS'eawag_0441.ms'
p2467
(lp2468
I13875219
asS'washington_1057.ms'
p2469
(lp2470
I453555
asS'riken_0662.ms'
p2471
(lp2472
I16736532
aI16740885
aI16740884
aI16736531
aI4479270
aI4479271
aI21522633
aI21522634
aI24845175
asS'eawag_0745.ms'
p2473
(lp2474
I3173
asS'eawag_0250.ms'
p2475
(lp2476
I75667
asS'eawag_0802.ms'
p2477
(lp2478
I8115
asS'eawag_0124.ms'
p2479
(lp2480
I25472
asS'eawag_0321.ms'
p2481
(lp2482
I21485694
asS'riken_1250.ms'
p2483
(lp2484
I3818712
asS'eawag_0329.ms'
p2485
(lp2486
I355054
aI21235303
aI21240262
asS'washington_0403.ms'
p2487
(lp2488
I484866
asS'ipb_0118.ms'
p2489
(lp2490
I9055
asS'washington_0939.ms'
p2491
(lp2492
I12944919
asS'eawag_0797.ms'
p2493
(lp2494
I49446
asS'riken_0734.ms'
p2495
(lp2496
I11312530
asS'washington_0439.ms'
p2497
(lp2498
I2797
aI21239667
asS'eawag_0339.ms'
p2499
(lp2500
I4888
asS'ufz_0094.ms'
p2501
(lp2502
I22739
asS'mpi_0038.ms'
p2503
(lp2504
I5245727
aI21240153
asS'naist_0023.ms'
p2505
(lp2506
I227
asS'ufz_0297.ms'
p2507
(lp2508
I6385
asS'eawag_0203.ms'
p2509
(lp2510
I78360
asS'riken_0614.ms'
p2511
(lp2512
I200
asS'eawag_0133.ms'
p2513
(lp2514
I20848
asS'ufz_0305.ms'
p2515
(lp2516
I111359
asS'ufz_0055.ms'
p2517
(lp2518
I13035
asS'washington_0118.ms'
p2519
(lp2520
I4299860
asS'riken_0579.ms'
p2521
(lp2522
I1022
asS'eawag_0029.ms'
p2523
(lp2524
I513569
asS'ufz_0270.ms'
p2525
(lp2526
I282625
aI21239844
asS'fiocruz_0084.ms'
p2527
(lp2528
I4444774
asS'jeol_0024.ms'
p2529
(lp2530
I2169
asS'eawag_0200.ms'
p2531
(lp2532
I86506
asS'riken_0753.ms'
p2533
(lp2534
I4444764
asS'eawag_0666.ms'
p2535
(lp2536
I15108
asS'riken_0643.ms'
p2537
(lp2538
I3056859
asS'riken_0346.ms'
p2539
(lp2540
I4444051
asS'eawag_0495.ms'
p2541
(lp2542
I5309
asS'eawag_0141.ms'
p2543
(lp2544
I2909
asS'eawag_0490.ms'
p2545
(lp2546
I2045
asS'ufz_0162.ms'
p2547
(lp2548
I15699
asS'eawag_0219.ms'
p2549
(lp2550
I28290251
asS'eawag_0627.ms'
p2551
(lp2552
I4447600
aI4591214
aI4932085
aI8510487
aI4514303
aI26636394
aI29055
aI37888714
aI4591253
aI4591291
aI10485437
aI21234200
aI21239478
asS'fiocruz_0092.ms'
p2553
(lp2554
I4504
aI21234165
aI21238993
aI21240148
asS'ufz_0256.ms'
p2555
(lp2556
I21230623
aI21232897
asS'eawag_0397.ms'
p2557
(lp2558
I19817196
aI21235072
asS'ipb_0006.ms'
p2559
(lp2560
I15769
asS'washington_0934.ms'
p2561
(lp2562
I600391
asS'washington_0278.ms'
p2563
(lp2564
I10439078
asS'riken_0600.ms'
p2565
(lp2566
I929
aI21230444
asS'eawag_0769.ms'
p2567
(lp2568
I3056
asS'eawag_0382.ms'
p2569
(lp2570
I21130168
asS'ipb_0123.ms'
p2571
(lp2572
I2005992
asS'washington_0810.ms'
p2573
(lp2574
I13391
asS'washington_0515.ms'
p2575
(lp2576
I2947995
asS'washington_0112.ms'
p2577
(lp2578
I21428561
asS'mpi_0083.ms'
p2579
(lp2580
I4952889
aI24785279
aI35013427
aI24784934
asS'mpi_0028.ms'
p2581
(lp2582
I9741
asS'riken_0516.ms'
p2583
(lp2584
I1099
asS'riken_0500.ms'
p2585
(lp2586
I11474
asS'env_022.ms'
p2587
(lp2588
I3949
asS'washington_0043.ms'
p2589
(lp2590
I4518
asS'washington_0534.ms'
p2591
(lp2592
I5883850
asS'riken_0704.ms'
p2593
(lp2594
I63805
asS'eawag_0098.ms'
p2595
(lp2596
I2055
asS'fiocruz_0064.ms'
p2597
(lp2598
I554353
asS'riken_0574.ms'
p2599
(lp2600
I3272517
asS'eawag_0593.ms'
p2601
(lp2602
I10761296
aI21203724
aI21234991
asS'eawag_0214.ms'
p2603
(lp2604
I2458
asS'fiocruz_0031.ms'
p2605
(lp2606
I4444992
aI8066285
aI17261788
aI4885004
aI21522623
aI23326858
aI24845124
aI26324508
aI29314917
asS'washington_0864.ms'
p2607
(lp2608
I4282109
asS'mpi_0103.ms'
p2609
(lp2610
I591
asS'eawag_0804.ms'
p2611
(lp2612
I83325
asS'washington_0377.ms'
p2613
(lp2614
I103096
aI21537401
asS'washington_0502.ms'
p2615
(lp2616
I2723774
asS'metabolights_0015.ms'
p2617
(lp2618
I14170
asS'washington_0452.ms'
p2619
(lp2620
I3698
asS'fiocruz_0028.ms'
p2621
(lp2622
I11213925
asS'riken_1245.ms'
p2623
(lp2624
I22370051
asS'fiocruz_0005.ms'
p2625
(lp2626
I12282
asS'eawag_0127.ms'
p2627
(lp2628
I2662
asS'eawag_0045.ms'
p2629
(lp2630
I13035
asS'eawag_0642.ms'
p2631
(lp2632
I8382
asS'fiocruz_0072.ms'
p2633
(lp2634
I2731
asS'washington_0272.ms'
p2635
(lp2636
I191250
asS'ipb_0016.ms'
p2637
(lp2638
I769
asS'riken_0569.ms'
p2639
(lp2640
I316
asS'fiocruz_0044.ms'
p2641
(lp2642
I4444051
asS'riken_0699.ms'
p2643
(lp2644
I743
asS'eawag_0487.ms'
p2645
(lp2646
I3249
asS'washington_0669.ms'
p2647
(lp2648
I4444445
asS'eawag_0616.ms'
p2649
(lp2650
I1710
asS'riken_0571.ms'
p2651
(lp2652
I1166
asS'eawag_0735.ms'
p2653
(lp2654
I7988
asS'eawag_0550.ms'
p2655
(lp2656
I37831
asS'eawag_0524.ms'
p2657
(lp2658
I77764
asS'washington_0620.ms'
p2659
(lp2660
I3971
asS'ufz_0082.ms'
p2661
(lp2662
I5889
asS'washington_0244.ms'
p2663
(lp2664
I1036
aI21108587
asS'washington_0602.ms'
p2665
(lp2666
I8622
aI558737
aI83744
aI107761
aI2319713
aI220387
aI4954551
aI5140804
aI2279603
aI4642516
aI107697
aI402916
aI559233
aI839561
aI1046018
aI555755
aI2496819
aI5025102
aI5145721
aI5415699
aI8017242
aI8626215
aI5558761
aI10038017
aI10039693
aI10043551
aI23260712
aI26359377
aI49072131
aI10043584
aI10043901
aI10044749
aI10236466
aI10039692
aI5885627
aI5885628
aI10035338
aI10038016
aI5558760
aI5415698
aI5026738
aI1064957
asS'mpi_0109.ms'
p2667
(lp2668
I114985
asS'washington_0166.ms'
p2669
(lp2670
I3712
asS'univ_0188.ms'
p2671
(lp2672
I142560
aI29273167
aI10234115
aI24534068
aI28484188
aI35303408
asS'eawag_0599.ms'
p2673
(lp2674
I37469
asS'riken_0653.ms'
p2675
(lp2676
I4590322
aI16736530
aI8433655
aI21522619
aI24843695
aI31044430
aI19604963
asS'eawag_0607.ms'
p2677
(lp2678
I661
asS'washington_0773.ms'
p2679
(lp2680
I4800150
asS'eawag_0025.ms'
p2681
(lp2682
I21229841
asS'washington_0399.ms'
p2683
(lp2684
I4880
asS'eawag_0448.ms'
p2685
(lp2686
I4422
asS'ipb_0045.ms'
p2687
(lp2688
I17924
asS'washington_1131.ms'
p2689
(lp2690
I3386133
asS'metabolights_0035.ms'
p2691
(lp2692
I581
asS'riken_0373.ms'
p2693
(lp2694
I4920
asS'eawag_0222.ms'
p2695
(lp2696
I94653
asS'ufz_0039.ms'
p2697
(lp2698
I21111816
asS'eawag_0308.ms'
p2699
(lp2700
I4298
asS'riken_1212.ms'
p2701
(lp2702
I28682286
asS'env_021.ms'
p2703
(lp2704
I8527
asS'eawag_0544.ms'
p2705
(lp2706
I2780
asS'mpi_0009.ms'
p2707
(lp2708
I4444919
asS'metabolights_0003.ms'
p2709
(lp2710
I22672
asS'eawag_0419.ms'
p2711
(lp2712
I8287
asS'washington_0485.ms'
p2713
(lp2714
I2285
asS'eawag_0719.ms'
p2715
(lp2716
I220696
asS'eawag_0333.ms'
p2717
(lp2718
I2074
asS'mpi_0032.ms'
p2719
(lp2720
I4730614
asS'ufz_0042.ms'
p2721
(lp2722
I13869339
asS'eawag_0296.ms'
p2723
(lp2724
I3824
asS'ufz_0267.ms'
p2725
(lp2726
I2946
asS'ufz_0159.ms'
p2727
(lp2728
I21865404
asS'riken_0686.ms'
p2729
(lp2730
I22297
asS'mpi_0046.ms'
p2731
(lp2732
I440
asS'ipb_0141.ms'
p2733
(lp2734
I4625
asS'washington_0507.ms'
p2735
(lp2736
I2947995
asS'washington_0718.ms'
p2737
(lp2738
I1116
asS'riken_0559.ms'
p2739
(lp2740
I4532292
asS'eawag_0752.ms'
p2741
(lp2742
I32932
asS'washington_0440.ms'
p2743
(lp2744
I2265
asS'eawag_0117.ms'
p2745
(lp2746
I21170688
asS'eawag_0454.ms'
p2747
(lp2748
I2086
aI21234241
asS'jeol_0002.ms'
p2749
(lp2750
I28948
asS'riken_0632.ms'
p2751
(lp2752
I21230384
asS'washington_0672.ms'
p2753
(lp2754
I4444926
asS'ipb_0076.ms'
p2755
(lp2756
I4385
asS'ufz_0204.ms'
p2757
(lp2758
I2457
asS'ufz_0088.ms'
p2759
(lp2760
I6954
asS'fiocruz_0068.ms'
p2761
(lp2762
I307843
asS'ufz_0201.ms'
p2763
(lp2764
I2424
asS'ipb_0042.ms'
p2765
(lp2766
I9838
asS'washington_0115.ms'
p2767
(lp2768
I3546693
asS'ufz_0060.ms'
p2769
(lp2770
I4593
asS'riken_0619.ms'
p2771
(lp2772
I752
asS'ufz_0009.ms'
p2773
(lp2774
I5593
asS'ufz_0217.ms'
p2775
(lp2776
I3791
asS'washington_0071.ms'
p2777
(lp2778
I14792
asS'eawag_0624.ms'
p2779
(lp2780
I23551
asS'eawag_0650.ms'
p2781
(lp2782
I2317896
asS'eawag_0301.ms'
p2783
(lp2784
I2445
asS'eawag_0413.ms'
p2785
(lp2786
I40113
asS'eawag_0067.ms'
p2787
(lp2788
I4027
asS'ufz_0113.ms'
p2789
(lp2790
I13035
asS'riken_0622.ms'
p2791
(lp2792
I234464
aI21235466
asS'washington_0268.ms'
p2793
(lp2794
I3392
asS'eawag_0229.ms'
p2795
(lp2796
I4898
aI21240732
asS'jeol_0038.ms'
p2797
(lp2798
I5198
aI21240721
asS'ipb_0130.ms'
p2799
(lp2800
I969
asS'eawag_0678.ms'
p2801
(lp2802
I171856
asS'eawag_0035.ms'
p2803
(lp2804
I14716
asS'ipb_0051.ms'
p2805
(lp2806
I8333
asS'ufz_0002.ms'
p2807
(lp2808
I7689
asS'mpi_0097.ms'
p2809
(lp2810
I234464
aI21235466
asS'riken_0356.ms'
p2811
(lp2812
I21428569
asS'washington_0591.ms'
p2813
(lp2814
I3997
asS'eawag_0234.ms'
p2815
(lp2816
I21108555
aI21234225
aI21240703
asS'riken_0367.ms'
p2817
(lp2818
I4527386
asS'eawag_0435.ms'
p2819
(lp2820
I34418
asS'jeol_0008.ms'
p2821
(lp2822
I3811707
asS'eawag_0566.ms'
p2823
(lp2824
I22905963
aI4945072
asS'mpi_0047.ms'
p2825
(lp2826
I14677
asS'ipb_0064.ms'
p2827
(lp2828
I4444362
aI8546981
aI5160552
aI17472803
aI21241943
aI22870914
aI5422540
aI5422541
aI5422542
aI5422543
aI8275805
aI8408085
aI10142669
aI5036872
aI26329537
aI28473632
aI29314924
aI31037993
aI23170953
aI23248842
aI23975948
aI24844777
aI24844825
aI24958743
aI21522630
aI21239221
aI21239253
asS'ipb_0023.ms'
p2829
(lp2830
I752
asS'washington_0027.ms'
p2831
(lp2832
I563381
asS'eawag_0379.ms'
p2833
(lp2834
I10248201
asS'washington_1030.ms'
p2835
(lp2836
I600236
asS'eawag_0421.ms'
p2837
(lp2838
I9703
asS'riken_0528.ms'
p2839
(lp2840
I5681
aI5682
aI17347086
aI901
aI10239196
aI394833
aI393422
aI393660
aI394321
aI394669
aI99865
aI170341
aI4475165
aI4475166
aI5036484
aI393185
aI393358
aI8684153
aI17347087
aI23942251
aI29787581
aI30786128
aI31044211
aI34978411
aI21470075
aI23105279
aI23873986
aI17279526
aI9460288
aI5036485
aI392240
aI99864
asS'riken_0672.ms'
p2841
(lp2842
I4952
asS'eawag_0637.ms'
p2843
(lp2844
I2989
asS'eawag_0077.ms'
p2845
(lp2846
I2457
asS'eawag_0662.ms'
p2847
(lp2848
I6376
asS'ufz_0230.ms'
p2849
(lp2850
I2804
aI21138158
asS'riken_0344.ms'
p2851
(lp2852
I907
asS'eawag_0360.ms'
p2853
(lp2854
I5290696
asS'washington_0051.ms'
p2855
(lp2856
I549443
asS'washington_0692.ms'
p2857
(lp2858
I4516
asS'washington_0886.ms'
p2859
(lp2860
I385351
asS'fiocruz_0053.ms'
p2861
(lp2862
I3748
asS'washington_0815.ms'
p2863
(lp2864
I2174631
asS'eawag_0005.ms'
p2865
(lp2866
I33829
asS'ufz_0078.ms'
p2867
(lp2868
I8319
asS'eawag_0084.ms'
p2869
(lp2870
I3544
asS'eawag_0092.ms'
p2871
(lp2872
I21165
aI21234870
asS'eawag_0192.ms'
p2873
(lp2874
I16505
asS'fiocruz_0021.ms'
p2875
(lp2876
I90374
asS'eawag_0437.ms'
p2877
(lp2878
I77839
asS'eawag_0241.ms'
p2879
(lp2880
I3235
aI21240886
asS'eawag_0404.ms'
p2881
(lp2882
I4047
asS'ufz_0225.ms'
p2883
(lp2884
I3328
asS'jeol_0031.ms'
p2885
(lp2886
I3353384
asS'env_011.ms'
p2887
(lp2888
I6950
asS'eawag_0668.ms'
p2889
(lp2890
I22824
asS'eawag_0363.ms'
p2891
(lp2892
I77711
asS'eawag_0018.ms'
p2893
(lp2894
I66316
asS'mpi_0001.ms'
p2895
(lp2896
I14792
asS'riken_0477.ms'
p2897
(lp2898
I775
aI21231978
aI21427514
asS'eawag_0672.ms'
p2899
(lp2900
I21171395
asS'ipb_0077.ms'
p2901
(lp2902
I4474
asS'mpi_0040.ms'
p2903
(lp2904
I2005992
asS'ufz_0199.ms'
p2905
(lp2906
I5138
asS'eawag_0543.ms'
p2907
(lp2908
I454849
aI21238869
asS'riken_0343.ms'
p2909
(lp2910
I4444991
asS'eawag_0270.ms'
p2911
(lp2912
I28184900
aI11230402
asS'washington_0328.ms'
p2913
(lp2914
I89537
asS'ipb_0060.ms'
p2915
(lp2916
I4444448
asS'ufz_0150.ms'
p2917
(lp2918
I39402
asS'riken_0613.ms'
p2919
(lp2920
I1053
aI21231955
aI21232124
aI21238156
asS'ufz_0014.ms'
p2921
(lp2922
I6096
asS'riken_0548.ms'
p2923
(lp2924
I11446827
asS'ufz_0074.ms'
p2925
(lp2926
I6585
asS'ufz_0206.ms'
p2927
(lp2928
I3904
asS'eawag_0106.ms'
p2929
(lp2930
I60527
asS'fiocruz_0104.ms'
p2931
(lp2932
I4510257
asS'riken_0565.ms'
p2933
(lp2934
I3394584
asS'fiocruz_0013.ms'
p2935
(lp2936
I12314
asS'ufz_0071.ms'
p2937
(lp2938
I76163
asS'eawag_0139.ms'
p2939
(lp2940
I82858
asS'eawag_0285.ms'
p2941
(lp2942
I3618
asS'riken_0414.ms'
p2943
(lp2944
I9838
asS'ipb_0037.ms'
p2945
(lp2946
I1071
asS'eawag_0369.ms'
p2947
(lp2948
I30114
asS'ufz_0245.ms'
p2949
(lp2950
I13869339
asS'env_013.ms'
p2951
(lp2952
I111300
asS'eawag_0395.ms'
p2953
(lp2954
I2565
asS'eawag_0314.ms'
p2955
(lp2956
I68493
asS'ipb_0138.ms'
p2957
(lp2958
I308990
asS'eawag_0320.ms'
p2959
(lp2960
I3689
asS'eawag_0657.ms'
p2961
(lp2962
I13002
asS'eawag_0583.ms'
p2963
(lp2964
I4717
asS'fiocruz_0022.ms'
p2965
(lp2966
I4444755
asS'ufz_0131.ms'
p2967
(lp2968
I154427
asS'mpi_0021.ms'
p2969
(lp2970
I6754
asS'washington_0605.ms'
p2971
(lp2972
I5060
aI21236502
aI21236503
asS'riken_0358.ms'
p2973
(lp2974
I11208697
asS'washington_0752.ms'
p2975
(lp2976
I458
asS'eawag_0440.ms'
p2977
(lp2978
I3170
aI21236475
asS'washington_0863.ms'
p2979
(lp2980
I3053
asS'washington_0410.ms'
p2981
(lp2982
I106383
asS'washington_0381.ms'
p2983
(lp2984
I1269
asS'eawag_0786.ms'
p2985
(lp2986
I331
asS'washington_0374.ms'
p2987
(lp2988
I3324
asS'washington_1029.ms'
p2989
(lp2990
I4674
asS'eawag_0051.ms'
p2991
(lp2992
I77885
asS'washington_0190.ms'
p2993
(lp2994
I90925
asS'ipb_0088.ms'
p2995
(lp2996
I361110
asS'eawag_0667.ms'
p2997
(lp2998
I367977
asS'washington_0657.ms'
p2999
(lp3000
I61420
asS'washington_0627.ms'
p3001
(lp3002
I2915865
asS'washington_1086.ms'
p3003
(lp3004
I3044159
asS'ufz_0054.ms'
p3005
(lp3006
I8857
asS'ufz_0140.ms'
p3007
(lp3008
I82798
asS'eawag_0185.ms'
p3009
(lp3010
I28290252
asS'riken_0341.ms'
p3011
(lp3012
I4444985
asS'washington_0243.ms'
p3013
(lp3014
I3002947
asS'mpi_0048.ms'
p3015
(lp3016
I440
asS'washington_0305.ms'
p3017
(lp3018
I8622
aI558737
aI83744
aI107761
aI2319713
aI220387
aI4954551
aI5140804
aI2279603
aI4642516
aI107697
aI402916
aI559233
aI839561
aI1046018
aI555755
aI2496819
aI5025102
aI5145721
aI5415699
aI8017242
aI8626215
aI5558761
aI10038017
aI10039693
aI10043551
aI23260712
aI26359377
aI49072131
aI10043584
aI10043901
aI10044749
aI10236466
aI10039692
aI5885627
aI5885628
aI10035338
aI10038016
aI5558760
aI5415698
aI5026738
aI1064957
asS'ufz_0095.ms'
p3019
(lp3020
I13854136
asS'washington_0537.ms'
p3021
(lp3022
I3693
asS'env_019.ms'
p3023
(lp3024
I109219
asS'eawag_0166.ms'
p3025
(lp3026
I58457
asS'eawag_0725.ms'
p3027
(lp3028
I10266281
asS'eawag_0202.ms'
p3029
(lp3030
I4953376
asS'ipb_0113.ms'
p3031
(lp3032
I2655
asS'washington_1135.ms'
p3033
(lp3034
I600227
asS'naist_0030.ms'
p3035
(lp3036
I725
asS'eawag_0620.ms'
p3037
(lp3038
I3302
aI21537391
asS'riken_0538.ms'
p3039
(lp3040
I4444985
asS'riken_0486.ms'
p3041
(lp3042
I9616
aI21233751
asS'eawag_0002.ms'
p3043
(lp3044
I13853758
asS'eawag_0713.ms'
p3045
(lp3046
I4529
asS'eawag_0801.ms'
p3047
(lp3048
I1555
asS'eawag_0340.ms'
p3049
(lp3050
I5382
asS'ipb_0029.ms'
p3051
(lp3052
I594
asS'riken_1220.ms'
p3053
(lp3054
I4590515
aI29365153
aI10188643
aI8474923
aI8543312
aI4477140
aI18599820
aI24845102
aI24845110
aI30785699
aI30785701
aI34248132
asS'ufz_0285.ms'
p3055
(lp3056
I7970793
asS'ipb_0109.ms'
p3057
(lp3058
I4337937
asS'ufz_0243.ms'
p3059
(lp3060
I68568
asS'washington_0788.ms'
p3061
(lp3062
I1168
asS'riken_0357.ms'
p3063
(lp3064
I4575318
asS'ufz_0175.ms'
p3065
(lp3066
I106612
asS'washington_0920.ms'
p3067
(lp3068
I4246047
asS'washington_0167.ms'
p3069
(lp3070
I4799
asS'washington_0157.ms'
p3071
(lp3072
I4799
asS'ufz_0032.ms'
p3073
(lp3074
I21159446
asS'eawag_0768.ms'
p3075
(lp3076
I34561028
asS'washington_0076.ms'
p3077
(lp3078
I119732
asS'washington_0879.ms'
p3079
(lp3080
I600074
asS'riken_1206.ms'
p3081
(lp3082
I11208702
asS'washington_0279.ms'
p3083
(lp3084
I191250
asS'washington_0846.ms'
p3085
(lp3086
I2548482
asS'riken_0580.ms'
p3087
(lp3088
I1021
asS'env_023.ms'
p3089
(lp3090
I5454
asS'ufz_0053.ms'
p3091
(lp3092
I21106470
asS'ipb_0119.ms'
p3093
(lp3094
I2263
asS'washington_0444.ms'
p3095
(lp3096
I3698
asS'mpi_0029.ms'
p3097
(lp3098
I4444362
aI8546981
aI5160552
aI17472803
aI21241943
aI22870914
aI5422540
aI5422541
aI5422542
aI5422543
aI8275805
aI8408085
aI10142669
aI5036872
aI26329537
aI28473632
aI29314924
aI31037993
aI23170953
aI23248842
aI23975948
aI24844777
aI24844825
aI24958743
aI21522630
aI21239221
aI21239253
asS'washington_0496.ms'
p3099
(lp3100
I454657
asS'fiocruz_0059.ms'
p3101
(lp3102
I3508
asS'riken_0735.ms'
p3103
(lp3104
I52083148
asS'eawag_0514.ms'
p3105
(lp3106
I6287
asS'eawag_0388.ms'
p3107
(lp3108
I74657
asS'riken_0532.ms'
p3109
(lp3110
I548
asS'washington_0944.ms'
p3111
(lp3112
I600391
asS'eawag_0130.ms'
p3113
(lp3114
I15693
asS'jeol_0029.ms'
p3115
(lp3116
I13303
asS'fiocruz_0089.ms'
p3117
(lp3118
I10977
asS'eawag_0564.ms'
p3119
(lp3120
I4941946
aI11304573
asS'ufz_0161.ms'
p3121
(lp3122
I15299
asS'fiocruz_0043.ms'
p3123
(lp3124
I4576639
asS'ufz_0226.ms'
p3125
(lp3126
I3233
aI21238382
aI21240116
asS'mpi_0039.ms'
p3127
(lp3128
I4288
aI21239192
aI21428210
asS'ufz_0304.ms'
p3129
(lp3130
I83306
asS'washington_0894.ms'
p3131
(lp3132
I4537957
asS'riken_1229.ms'
p3133
(lp3134
I8013088
asS'ufz_0296.ms'
p3135
(lp3136
I16799
asS'eawag_0762.ms'
p3137
(lp3138
I13837319
asS'riken_0406.ms'
p3139
(lp3140
I6921
asS'washington_0273.ms'
p3141
(lp3142
I44304
asS'eawag_0258.ms'
p3143
(lp3144
I82753
asS'ufz_0292.ms'
p3145
(lp3146
I29088
asS'eawag_0551.ms'
p3147
(lp3148
I77887
asS'eawag_0336.ms'
p3149
(lp3150
I180996
asS'eawag_0533.ms'
p3151
(lp3152
I5237
asS'washington_1100.ms'
p3153
(lp3154
I8150356
asS'eawag_0044.ms'
p3155
(lp3156
I25761
asS'ipb_0125.ms'
p3157
(lp3158
I80576
asS'riken_0522.ms'
p3159
(lp3160
I21232093
aI21232483
asS'washington_1054.ms'
p3161
(lp3162
I145054
asS'riken_0652.ms'
p3163
(lp3164
I4586974
asS'eawag_0201.ms'
p3165
(lp3166
I516658
asS'washington_0356.ms'
p3167
(lp3168
I8622
aI558737
aI83744
aI107761
aI2319713
aI220387
aI4954551
aI5140804
aI2279603
aI4642516
aI107697
aI402916
aI559233
aI839561
aI1046018
aI555755
aI2496819
aI5025102
aI5145721
aI5415699
aI8017242
aI8626215
aI5558761
aI10038017
aI10039693
aI10043551
aI23260712
aI26359377
aI49072131
aI10043584
aI10043901
aI10044749
aI10236466
aI10039692
aI5885627
aI5885628
aI10035338
aI10038016
aI5558760
aI5415698
aI5026738
aI1064957
asS'fiocruz_0078.ms'
p3169
(lp3170
I75607
asS'eawag_0590.ms'
p3171
(lp3172
I21108497
asS'eawag_0146.ms'
p3173
(lp3174
I58771
asS'eawag_0464.ms'
p3175
(lp3176
I8275
asS'eawag_0680.ms'
p3177
(lp3178
I34501326
asS'eawag_0140.ms'
p3179
(lp3180
I3008
asS'eawag_0218.ms'
p3181
(lp3182
I111300
asS'eawag_0095.ms'
p3183
(lp3184
I4380
asS'jeol_0023.ms'
p3185
(lp3186
I12705
asS'washington_0514.ms'
p3187
(lp3188
I454657
asS'eawag_0589.ms'
p3189
(lp3190
I2300816
asS'eawag_0571.ms'
p3191
(lp3192
I193269
asS'washington_0443.ms'
p3193
(lp3194
I2424
asS'jeol_0033.ms'
p3195
(lp3196
I3876
asS'eawag_0649.ms'
p3197
(lp3198
I104192
asS'washington_0764.ms'
p3199
(lp3200
I591
asS'eawag_0356.ms'
p3201
(lp3202
I110211
asS'ipb_0007.ms'
p3203
(lp3204
I4945043
asS'eawag_0170.ms'
p3205
(lp3206
I31782
asS'riken_0556.ms'
p3207
(lp3208
I4444992
aI8066285
aI17261788
aI4885004
aI21522623
aI23326858
aI24845124
aI26324508
aI29314917
asS'riken_0503.ms'
p3209
(lp3210
I4669
asS'riken_0659.ms'
p3211
(lp3212
I3661889
asS'ipb_0098.ms'
p3213
(lp3214
I277139
asS'jeol_0025.ms'
p3215
(lp3216
I4759
asS'eawag_0418.ms'
p3217
(lp3218
I5899
asS'eawag_0239.ms'
p3219
(lp3220
I2693701
asS'fiocruz_0006.ms'
p3221
(lp3222
I12285
asS'ufz_0043.ms'
p3223
(lp3224
I13842613
asS'eawag_0628.ms'
p3225
(lp3226
I3534
aI21108562
aI21395313
asS'fiocruz_0032.ms'
p3227
(lp3228
I907
asS'mpi_0033.ms'
p3229
(lp3230
I2265
asS'washington_0484.ms'
p3231
(lp3232
I4445231
asS'ipb_0140.ms'
p3233
(lp3234
I4444051
asS'ufz_0031.ms'
p3235
(lp3236
I6954
asS'riken_0687.ms'
p3237
(lp3238
I629
asS'eawag_0506.ms'
p3239
(lp3240
I3866078
aI21201652
aI21230516
aI21234282
aI21537397
asS'eawag_0442.ms'
p3241
(lp3242
I2072
asS'eawag_0443.ms'
p3243
(lp3244
I2373
asS'jeol_0011.ms'
p3245
(lp3246
I23620656
asS'eawag_0604.ms'
p3247
(lp3248
I74139
asS'eawag_0208.ms'
p3249
(lp3250
I24721983
asS'washington_0503.ms'
p3251
(lp3252
I285420
asS'ufz_0145.ms'
p3253
(lp3254
I13278
asS'washington_0453.ms'
p3255
(lp3256
I872
asS'riken_0645.ms'
p3257
(lp3258
I11312530
asS'eawag_0615.ms'
p3259
(lp3260
I3871
asS'eawag_0665.ms'
p3261
(lp3262
I16736371
asS'eawag_0643.ms'
p3263
(lp3264
I13036
asS'fiocruz_0073.ms'
p3265
(lp3266
I3194
aI21240404
asS'eawag_0496.ms'
p3267
(lp3268
I5532
asS'eawag_0527.ms'
p3269
(lp3270
I35974
asS'riken_0568.ms'
p3271
(lp3272
I97096
asS'eawag_0790.ms'
p3273
(lp3274
I2839
asS'eawag_0412.ms'
p3275
(lp3276
I5507
asS'eawag_0015.ms'
p3277
(lp3278
I38241
asS'riken_0623.ms'
p3279
(lp3280
I9587432
aI5444738
aI9919645
aI10211203
aI2006826
aI5142889
aI5442305
aI10122081
aI9761107
aI23717810
aI5442306
aI1379414
aI1398718
aI1398719
aI9301695
aI23253883
aI30988167
aI45743298
aI52564214
aI45743299
aI34978154
aI23253885
aI28638521
asS'ipb_0131.ms'
p3281
(lp3282
I1116
asS'washington_0127.ms'
p3283
(lp3284
I3635401
asS'riken_1211.ms'
p3285
(lp3286
I22370051
asS'eawag_0026.ms'
p3287
(lp3288
I38865
asS'fiocruz_0062.ms'
p3289
(lp3290
I687251
asS'jeol_0039.ms'
p3291
(lp3292
I4103
asS'washington_1109.ms'
p3293
(lp3294
I3223719
asS'washington_0767.ms'
p3295
(lp3296
I24093
asS'washington_0010.ms'
p3297
(lp3298
I21030
asS'eawag_0034.ms'
p3299
(lp3300
I66325
asS'ufz_0169.ms'
p3301
(lp3302
I2635909
asS'ipb_0050.ms'
p3303
(lp3304
I63063
asS'washington_0565.ms'
p3305
(lp3306
I14677
asS'mpi_0056.ms'
p3307
(lp3308
I227
asS'washington_0449.ms'
p3309
(lp3310
I4923
asS'riken_0714.ms'
p3311
(lp3312
I3678069
asS'riken_0370.ms'
p3313
(lp3314
I4510257
asS'riken_0576.ms'
p3315
(lp3316
I1145
asS'eawag_0449.ms'
p3317
(lp3318
I36845
asS'eawag_0480.ms'
p3319
(lp3320
I56515
asS'washington_0048.ms'
p3321
(lp3322
I4518
asS'ufz_0016.ms'
p3323
(lp3324
I6585
asS'washington_0772.ms'
p3325
(lp3326
I14987
asS'ipb_0103.ms'
p3327
(lp3328
I4288
aI21239192
aI21428210
asS'riken_0707.ms'
p3329
(lp3330
I6467
asS'eawag_0103.ms'
p3331
(lp3332
I147099
asS'riken_0661.ms'
p3333
(lp3334
I10752063
asS'eawag_0223.ms'
p3335
(lp3336
I3328
asS'fiocruz_0037.ms'
p3337
(lp3338
I454657
asS'metabolights_0034.ms'
p3339
(lp3340
I4444395
asS'ufz_0038.ms'
p3341
(lp3342
I13854136
asS'eawag_0444.ms'
p3343
(lp3344
I2510
aI21234315
asS'eawag_0178.ms'
p3345
(lp3346
I5454
asS'mpi_0008.ms'
p3347
(lp3348
I969
asS'metabolights_0016.ms'
p3349
(lp3350
I5328
asS'washington_0812.ms'
p3351
(lp3352
I5090
asS'ufz_0134.ms'
p3353
(lp3354
I35563
asS'riken_0381.ms'
p3355
(lp3356
I2806159
asS'metabolights_0000.ms'
p3357
(lp3358
I1211
asS'jeol_0018.ms'
p3359
(lp3360
I29272862
asS'eawag_0598.ms'
p3361
(lp3362
I4290
asS'riken_0617.ms'
p3363
(lp3364
I21230518
asS'mpi_0108.ms'
p3365
(lp3366
I2503835
asS'ufz_0185.ms'
p3367
(lp3368
I4027
asS'eawag_0085.ms'
p3369
(lp3370
I2695
asS'eawag_0805.ms'
p3371
(lp3372
I82847
asS'eawag_0457.ms'
p3373
(lp3374
I21865944
asS'eawag_0302.ms'
p3375
(lp3376
I59391
asS'washington_0517.ms'
p3377
(lp3378
I10082789
aI10082788
asS'eawag_0288.ms'
p3379
(lp3380
I4928348
asS'eawag_0694.ms'
p3381
(lp3382
I61785
asS'washington_0197.ms'
p3383
(lp3384
I4385
asS'washington_0409.ms'
p3385
(lp3386
I907
asS'washington_0594.ms'
p3387
(lp3388
I3502
asS'ufz_0257.ms'
p3389
(lp3390
I4377
aI21108570
asS'eawag_0563.ms'
p3391
(lp3392
I3552
aI21234189
asS'ufz_0260.ms'
p3393
(lp3394
I454849
aI21238869
asS'ufz_0089.ms'
p3395
(lp3396
I21159446
asS'jeol_0001.ms'
p3397
(lp3398
I10673
asS'ipb_0043.ms'
p3399
(lp3400
I780
asS'ufz_0216.ms'
p3401
(lp3402
I5787
asS'riken_0720.ms'
p3403
(lp3404
I30791692
aI35014388
aI24608075
asS'washington_0732.ms'
p3405
(lp3406
I217498
asS'ufz_0075.ms'
p3407
(lp3408
I15016
asS'eawag_0375.ms'
p3409
(lp3410
I82870
asS'eawag_0736.ms'
p3411
(lp3412
I3228
asS'fiocruz_0105.ms'
p3413
(lp3414
I4444362
aI8546981
aI5160552
aI17472803
aI21241943
aI22870914
aI5422540
aI5422541
aI5422542
aI5422543
aI8275805
aI8408085
aI10142669
aI5036872
aI26329537
aI28473632
aI29314924
aI31037993
aI23170953
aI23248842
aI23975948
aI24844777
aI24844825
aI24958743
aI21522630
aI21239221
aI21239253
asS'washington_0589.ms'
p3415
(lp3416
I4504
aI21234165
aI21238993
aI21240148
asS'riken_0564.ms'
p3417
(lp3418
I4510257
asS'eawag_0405.ms'
p3419
(lp3420
I4385
asS'fiocruz_0020.ms'
p3421
(lp3422
I382455
asS'eawag_0808.ms'
p3423
(lp3424
I5256
asS'ipb_0020.ms'
p3425
(lp3426
I1121
asS'ipb_0116.ms'
p3427
(lp3428
I9741
asS'riken_0378.ms'
p3429
(lp3430
I4331691
asS'riken_0366.ms'
p3431
(lp3432
I11446824
asS'riken_0671.ms'
p3433
(lp3434
I58762
aI21232106
asS'eawag_0215.ms'
p3435
(lp3436
I8857
asS'ufz_0020.ms'
p3437
(lp3438
I8319
asS'eawag_0121.ms'
p3439
(lp3440
I44885
asS'eawag_0677.ms'
p3441
(lp3442
I46140
asS'riken_0523.ms'
p3443
(lp3444
I21230604
asS'eawag_0434.ms'
p3445
(lp3446
I8306043
asS'washington_0069.ms'
p3447
(lp3448
I2947453
asS'eawag_0138.ms'
p3449
(lp3450
I15972
asS'env_004.ms'
p3451
(lp3452
I6630
asS'eawag_0191.ms'
p3453
(lp3454
I12133
asS'washington_0026.ms'
p3455
(lp3456
I391196
asS'eawag_0076.ms'
p3457
(lp3458
I4927
asS'washington_0052.ms'
p3459
(lp3460
I4518
asS'washington_0511.ms'
p3461
(lp3462
I285420
asS'ufz_0207.ms'
p3463
(lp3464
I4740
asS'eawag_0632.ms'
p3465
(lp3466
I4618
asS'metabolights_0044.ms'
p3467
(lp3468
I14677
asS'washington_0604.ms'
p3469
(lp3470
I31709
asS'washington_0298.ms'
p3471
(lp3472
I8622
aI558737
aI83744
aI107761
aI2319713
aI220387
aI4954551
aI5140804
aI2279603
aI4642516
aI107697
aI402916
aI559233
aI839561
aI1046018
aI555755
aI2496819
aI5025102
aI5145721
aI5415699
aI8017242
aI8626215
aI5558761
aI10038017
aI10039693
aI10043551
aI23260712
aI26359377
aI49072131
aI10043584
aI10043901
aI10044749
aI10236466
aI10039692
aI5885627
aI5885628
aI10035338
aI10038016
aI5558760
aI5415698
aI5026738
aI1064957
asS'ufz_0129.ms'
p3473
(lp3474
I184716
asS'eawag_0426.ms'
p3475
(lp3476
I82856
asS'riken_0612.ms'
p3477
(lp3478
I800
asS'eawag_0055.ms'
p3479
(lp3480
I17707
asS'ufz_0099.ms'
p3481
(lp3482
I13869339
asS'eawag_0645.ms'
p3483
(lp3484
I21896624
asS'riken_1223.ms'
p3485
(lp3486
I4508511
aI24709428
aI24845287
asS'eawag_0050.ms'
p3487
(lp3488
I82803
asS'washington_1098.ms'
p3489
(lp3490
I4730614
asS'washington_0881.ms'
p3491
(lp3492
I130302
asS'fiocruz_0063.ms'
p3493
(lp3494
I582649
asS'ufz_0156.ms'
p3495
(lp3496
I5027
asS'eawag_0064.ms'
p3497
(lp3498
I2162
asS'eawag_0280.ms'
p3499
(lp3500
I4856
asS'ipb_0128.ms'
p3501
(lp3502
I312357
asS'fiocruz_0054.ms'
p3503
(lp3504
I1036
aI21108587
asS'eawag_0362.ms'
p3505
(lp3506
I184713
asS'eawag_0385.ms'
p3507
(lp3508
I4526
asS'riken_0476.ms'
p3509
(lp3510
I782
aI21230380
aI21239206
asS'washington_0867.ms'
p3511
(lp3512
I346407
asS'eawag_0273.ms'
p3513
(lp3514
I34752
asS'washington_1095.ms'
p3515
(lp3516
I90670
asS'eawag_0576.ms'
p3517
(lp3518
I73458
asS'ipb_0000.ms'
p3519
(lp3520
I907
asS'eawag_0542.ms'
p3521
(lp3522
I388799
aI21237397
aI21238781
aI21238871
aI21537318
asS'ufz_0284.ms'
p3523
(lp3524
I13837319
asS'riken_0747.ms'
p3525
(lp3526
I2005992
asS'washington_0483.ms'
p3527
(lp3528
I97096
asS'washington_0479.ms'
p3529
(lp3530
I2285
asS'riken_0347.ms'
p3531
(lp3532
I4445008
asS'eawag_0335.ms'
p3533
(lp3534
I3342490
asS'riken_0635.ms'
p3535
(lp3536
I2045090
asS'eawag_0621.ms'
p3537
(lp3538
I815
asS'riken_0539.ms'
p3539
(lp3540
I4444102
asS'washington_0156.ms'
p3541
(lp3542
I3712
asS'riken_0487.ms'
p3543
(lp3544
I843
asS'eawag_0003.ms'
p3545
(lp3546
I35563
asS'ufz_0275.ms'
p3547
(lp3548
I66962
asS'fiocruz_0094.ms'
p3549
(lp3550
I32042552
asS'jeol_0034.ms'
p3551
(lp3552
I1036
aI21108587
asS'eawag_0392.ms'
p3553
(lp3554
I1909
asS'washington_1061.ms'
p3555
(lp3556
I600190
asS'ipb_0108.ms'
p3557
(lp3558
I63063
asS'ufz_0246.ms'
p3559
(lp3560
I6746
asS'eawag_0167.ms'
p3561
(lp3562
I2121
asS'eawag_0248.ms'
p3563
(lp3564
I21428561
asS'ufz_0193.ms'
p3565
(lp3566
I2425
asS'washington_0671.ms'
p3567
(lp3568
I4444445
asS'washington_0965.ms'
p3569
(lp3570
I12944943
asS'ufz_0277.ms'
p3571
(lp3572
I31267
asS'env_007.ms'
p3573
(lp3574
I5063
asS'ipb_0036.ms'
p3575
(lp3576
I661
asS'eawag_0372.ms'
p3577
(lp3578
I15699
asS'eawag_0368.ms'
p3579
(lp3580
I4576347
asS'ipb_0028.ms'
p3581
(lp3582
I575
asS'washington_0600.ms'
p3583
(lp3584
I3997
asS'mpi_0069.ms'
p3585
(lp3586
I4590910
aI24842309
aI24842329
asS'riken_0542.ms'
p3587
(lp3588
I4445008
asS'eawag_0047.ms'
p3589
(lp3590
I22289
asS'washington_0790.ms'
p3591
(lp3592
I1168
asS'eawag_0773.ms'
p3593
(lp3594
I4350
asS'env_012.ms'
p3595
(lp3596
I4243140
asS'eawag_0315.ms'
p3597
(lp3598
I2075
asS'eawag_0190.ms'
p3599
(lp3600
I136883
asS'riken_0350.ms'
p3601
(lp3602
I4573039
asS'mpi_0014.ms'
p3603
(lp3604
I49181
asS'mpi_0095.ms'
p3605
(lp3606
I400786
asS'washington_0870.ms'
p3607
(lp3608
I335447
asS'eawag_0644.ms'
p3609
(lp3610
I8331
asS'eawag_0582.ms'
p3611
(lp3612
I4722
asS'mpi_0002.ms'
p3613
(lp3614
I4444448
asS'eawag_0415.ms'
p3615
(lp3616
I12705
asS'riken_0597.ms'
p3617
(lp3618
I963
asS'ufz_0046.ms'
p3619
(lp3620
I11003
asS'mpi_0020.ms'
p3621
(lp3622
I4880
asS'eawag_0233.ms'
p3623
(lp3624
I3513
asS'riken_0754.ms'
p3625
(lp3626
I4508522
asS'eawag_0159.ms'
p3627
(lp3628
I3248
asS'ufz_0295.ms'
p3629
(lp3630
I12549
asS'eawag_0515.ms'
p3631
(lp3632
I3640
asS'riken_0533.ms'
p3633
(lp3634
I4444100
asS'washington_0890.ms'
p3635
(lp3636
I3053
asS'eawag_0622.ms'
p3637
(lp3638
I2478
asS'washington_0936.ms'
p3639
(lp3640
I600178
asS'eawag_0088.ms'
p3641
(lp3642
I3904
asS'riken_0541.ms'
p3643
(lp3644
I4444051
asS'eawag_0131.ms'
p3645
(lp3646
I30800
asS'washington_0977.ms'
p3647
(lp3648
I22905582
aI24843807
asS'jeol_0028.ms'
p3649
(lp3650
I5027
asS'riken_0588.ms'
p3651
(lp3652
I244665
asS'eawag_0695.ms'
p3653
(lp3654
I110075
asS'eawag_0548.ms'
p3655
(lp3656
I22037
asS'washington_0237.ms'
p3657
(lp3658
I4444113
asS'washington_0878.ms'
p3659
(lp3660
I4282109
asS'ipb_0010.ms'
p3661
(lp3662
I19270589
asS'ufz_0222.ms'
p3663
(lp3664
I2577
asS'fiocruz_0042.ms'
p3665
(lp3666
I7428
asS'washington_0755.ms'
p3667
(lp3668
I600396
asS'ufz_0063.ms'
p3669
(lp3670
I7031
asS'washington_1141.ms'
p3671
(lp3672
I4862304
asS'washington_0895.ms'
p3673
(lp3674
I335447
asS'eawag_0560.ms'
p3675
(lp3676
I4880
asS'eawag_0184.ms'
p3677
(lp3678
I3822231
asS'washington_0108.ms'
p3679
(lp3680
I10216
asS'ufz_0128.ms'
p3681
(lp3682
I66326
asS'ufz_0084.ms'
p3683
(lp3684
I8866
asS'eawag_0475.ms'
p3685
(lp3686
I171124
asS'washington_1087.ms'
p3687
(lp3688
I4730614
asS'riken_0604.ms'
p3689
(lp3690
I883
aI21230615
asS'washington_0242.ms'
p3691
(lp3692
I4444113
asS'eawag_0243.ms'
p3693
(lp3694
I8129550
asS'eawag_0710.ms'
p3695
(lp3696
I2890
asS'washington_1013.ms'
p3697
(lp3698
I4674
asS'eawag_0724.ms'
p3699
(lp3700
I5463
asS'eawag_0558.ms'
p3701
(lp3702
I4422
asS'metabolights_0033.ms'
p3703
(lp3704
I744
asS'washington_0536.ms'
p3705
(lp3706
I2425
asS'eawag_0681.ms'
p3707
(lp3708
I34501325
asS'mpi_0072.ms'
p3709
(lp3710
I190747
asS'eawag_0631.ms'
p3711
(lp3712
I73905
asS'eawag_0213.ms'
p3713
(lp3714
I2066
asS'eawag_0252.ms'
p3715
(lp3716
I13157
asS'eawag_0094.ms'
p3717
(lp3718
I3599
aI21234393
asS'eawag_0697.ms'
p3719
(lp3720
I2687
asS'fiocruz_0082.ms'
p3721
(lp3722
I2655
asS'eawag_0109.ms'
p3723
(lp3724
I83330
asS'eawag_0588.ms'
p3725
(lp3726
I2342189
asS'eawag_0305.ms'
p3727
(lp3728
I2284
asS'washington_0241.ms'
p3729
(lp3730
I4646
asS'riken_0646.ms'
p3731
(lp3732
I4733447
asS'eawag_0402.ms'
p3733
(lp3734
I3254
asS'eawag_0357.ms'
p3735
(lp3736
I184723
asS'eawag_0171.ms'
p3737
(lp3738
I6952
asS'ufz_0223.ms'
p3739
(lp3740
I114505
asS'riken_0658.ms'
p3741
(lp3742
I2963362
asS'ufz_0120.ms'
p3743
(lp3744
I2973
asS'washington_0334.ms'
p3745
(lp3746
I3700
asS'washington_0765.ms'
p3747
(lp3748
I14987
asS'eawag_0674.ms'
p3749
(lp3750
I75869
asS'univ_0166.ms'
p3751
(lp3752
I4581368
asS'ufz_0114.ms'
p3753
(lp3754
I16867
asS'riken_0663.ms'
p3755
(lp3756
I4478707
aI8350835
aI4980229
aI13389461
aI22234708
aI24844435
aI24844535
asS'ufz_0018.ms'
p3757
(lp3758
I8576
asS'eawag_0226.ms'
p3759
(lp3760
I5322
asS'metabolights_0027.ms'
p3761
(lp3762
I3626469
asS'ipb_0099.ms'
p3763
(lp3764
I308990
asS'ufz_0052.ms'
p3765
(lp3766
I7234
asS'washington_0401.ms'
p3767
(lp3768
I5964
asS'ufz_0236.ms'
p3769
(lp3770
I4122
asS'eawag_0569.ms'
p3771
(lp3772
I10471625
aI4941665
aI8254698
aI21467582
aI32697480
aI34975870
aI45743317
asS'ufz_0211.ms'
p3773
(lp3774
I5136
asS'eawag_0614.ms'
p3775
(lp3776
I3794
asS'washington_0384.ms'
p3777
(lp3778
I2452
asS'washington_0355.ms'
p3779
(lp3780
I4624
asS'riken_1238.ms'
p3781
(lp3782
I353308
asS'eawag_0552.ms'
p3783
(lp3784
I5278
asS'eawag_0467.ms'
p3785
(lp3786
I48518
asS'riken_1235.ms'
p3787
(lp3788
I8333
asS'eawag_0526.ms'
p3789
(lp3790
I14868
asS'washington_0880.ms'
p3791
(lp3792
I346407
asS'eawag_0791.ms'
p3793
(lp3794
I33142
asS'ipb_0031.ms'
p3795
(lp3796
I231
asS'washington_1019.ms'
p3797
(lp3798
I4527569
asS'riken_0369.ms'
p3799
(lp3800
I8181964
aI21522627
aI24624244
aI24844794
aI24844864
asS'riken_0737.ms'
p3801
(lp3802
I391784
aI8292137
aI8403087
aI9515505
aI24842395
aI24842396
asS'washington_0222.ms'
p3803
(lp3804
I589037
asS'eawag_0785.ms'
p3805
(lp3806
I4915
asS'washington_0194.ms'
p3807
(lp3808
I4320
aI21235200
aI21240777
asS'ufz_0092.ms'
p3809
(lp3810
I1278
asS'ufz_0176.ms'
p3811
(lp3812
I4953376
asS'mpi_0036.ms'
p3813
(lp3814
I4444395
asS'mpi_0092.ms'
p3815
(lp3816
I575
asS'ufz_0072.ms'
p3817
(lp3818
I6096
asS'ufz_0303.ms'
p3819
(lp3820
I67856
asS'eawag_0497.ms'
p3821
(lp3822
I2631
asS'ipb_0124.ms'
p3823
(lp3824
I901
asS'mpi_0006.ms'
p3825
(lp3826
I2285
asS'eawag_0017.ms'
p3827
(lp3828
I2564795
asS'fiocruz_0079.ms'
p3829
(lp3830
I4739
asS'eawag_0591.ms'
p3831
(lp3832
I173756
asS'washington_0021.ms'
p3833
(lp3834
I432814
asS'riken_1218.ms'
p3835
(lp3836
I4717304
asS'riken_1210.ms'
p3837
(lp3838
I22912808
aI24844420
aI24844656
asS'eawag_0763.ms'
p3839
(lp3840
I13837303
asS'ipb_0102.ms'
p3841
(lp3842
I4444448
asS'ufz_0239.ms'
p3843
(lp3844
I5063
asS'eawag_0343.ms'
p3845
(lp3846
I68282
asS'riken_0525.ms'
p3847
(lp3848
I85112
asS'eawag_0206.ms'
p3849
(lp3850
I182281
asS'washington_0710.ms'
p3851
(lp3852
I1116
asS'eawag_0179.ms'
p3853
(lp3854
I8166
asS'ipb_0040.ms'
p3855
(lp3856
I12275
asS'eawag_0759.ms'
p3857
(lp3858
I64326
asS'eawag_0488.ms'
p3859
(lp3860
I1904
asS'eawag_0183.ms'
p3861
(lp3862
I4442
asS'washington_0731.ms'
p3863
(lp3864
I141
asS'eawag_0238.ms'
p3865
(lp3866
I11573692
asS'ipb_0143.ms'
p3867
(lp3868
I2998206
asS'washington_0813.ms'
p3869
(lp3870
I67942
asS'washington_0500.ms'
p3871
(lp3872
I268700
asS'eawag_0318.ms'
p3873
(lp3874
I2901
asS'riken_0620.ms'
p3875
(lp3876
I843
asS'fiocruz_0033.ms'
p3877
(lp3878
I4302
asS'washington_0436.ms'
p3879
(lp3880
I3698
asS'washington_0049.ms'
p3881
(lp3882
I4444444
asS'washington_0774.ms'
p3883
(lp3884
I24093
asS'ufz_0030.ms'
p3885
(lp3886
I6780
asS'washington_0120.ms'
p3887
(lp3888
I4513980
asS'eawag_0037.ms'
p3889
(lp3890
I47883
asS'riken_0480.ms'
p3891
(lp3892
I227
asS'washington_0059.ms'
p3893
(lp3894
I2947453
asS'eawag_0605.ms'
p3895
(lp3896
I2236
asS'eawag_0210.ms'
p3897
(lp3898
I4762
asS'washington_0582.ms'
p3899
(lp3900
I3997
asS'washington_0013.ms'
p3901
(lp3902
I2351435
asS'riken_0582.ms'
p3903
(lp3904
I1056
aI21230528
asS'env_001.ms'
p3905
(lp3906
I8381
asS'washington_0124.ms'
p3907
(lp3908
I4444070
asS'washington_1102.ms'
p3909
(lp3910
I600080
asS'washington_0408.ms'
p3911
(lp3912
I5964
asS'riken_0688.ms'
p3913
(lp3914
I88007
asS'eawag_0501.ms'
p3915
(lp3916
I3821
aI21234233
asS'riken_0351.ms'
p3917
(lp3918
I3034549
aI21537460
asS'ufz_0194.ms'
p3919
(lp3920
I59166
asS'metabolights_0020.ms'
p3921
(lp3922
I248
asS'washington_1108.ms'
p3923
(lp3924
I4730614
asS'riken_0701.ms'
p3925
(lp3926
I444
asS'ufz_0299.ms'
p3927
(lp3928
I10607767
asS'washington_1022.ms'
p3929
(lp3930
I4674
asS'eawag_0635.ms'
p3931
(lp3932
I2008
asS'eawag_0100.ms'
p3933
(lp3934
I3603
asS'eawag_0367.ms'
p3935
(lp3936
I8010234
asS'eawag_0014.ms'
p3937
(lp3938
I33978
asS'ipb_0080.ms'
p3939
(lp3940
I4970
asS'ipb_0039.ms'
p3941
(lp3942
I61745
asS'ufz_0000.ms'
p3943
(lp3944
I4593
asS'washington_0448.ms'
p3945
(lp3946
I2265
asS'washington_1111.ms'
p3947
(lp3948
I221804
asS'metabolights_0039.ms'
p3949
(lp3950
I911
asS'riken_0338.ms'
p3951
(lp3952
I4444448
asS'eawag_0027.ms'
p3953
(lp3954
I82834
asS'eawag_0779.ms'
p3955
(lp3956
I54663
asS'eawag_0080.ms'
p3957
(lp3958
I4029
asS'riken_0624.ms'
p3959
(lp3960
I819
asS'eawag_0326.ms'
p3961
(lp3962
I10770206
asS'mpi_0005.ms'
p3963
(lp3964
I2655
asS'mpi_0057.ms'
p3965
(lp3966
I969
asS'washington_0540.ms'
p3967
(lp3968
I5883850
asS'eawag_0481.ms'
p3969
(lp3970
I13844817
asS'washington_0942.ms'
p3971
(lp3972
I2407712
asS'riken_0371.ms'
p3973
(lp3974
I3394584
asS'riken_0577.ms'
p3975
(lp3976
I184
asS'eawag_0151.ms'
p3977
(lp3978
I158440
asS'washington_0498.ms'
p3979
(lp3980
I65491
asS'eawag_0742.ms'
p3981
(lp3982
I11494
asS'eawag_0120.ms'
p3983
(lp3984
I4025
asS'washington_0387.ms'
p3985
(lp3986
I1269
asS'washington_0518.ms'
p3987
(lp3988
I268700
asS'eawag_0585.ms'
p3989
(lp3990
I5007
asS'fiocruz_0027.ms'
p3991
(lp3992
I4527386
asS'washington_0715.ms'
p3993
(lp3994
I70356
asS'washington_1060.ms'
p3995
(lp3996
I145054
asS'washington_0648.ms'
p3997
(lp3998
I21230630
aI21238238
aI21240790
asS'env_005.ms'
p3999
(lp4000
I5138
asS'riken_0418.ms'
p4001
(lp4002
I301
asS'eawag_0145.ms'
p4003
(lp4004
I5138
asS'riken_0456.ms'
p4005
(lp4006
I3124759
aI21232075
asS'eawag_0164.ms'
p4007
(lp4008
I4382
asS'riken_0514.ms'
p4009
(lp4010
I5237
asS'washington_1101.ms'
p4011
(lp4012
I221804
asS'fiocruz_0070.ms'
p4013
(lp4014
I2153
aI21234594
asS'eawag_0456.ms'
p4015
(lp4016
I21233960
aI21238899
asS'eawag_0701.ms'
p4017
(lp4018
I18445
asS'riken_0567.ms'
p4019
(lp4020
I2452
asS'eawag_0723.ms'
p4021
(lp4022
I4599
asS'eawag_0289.ms'
p4023
(lp4024
I2726
asS'eawag_0371.ms'
p4025
(lp4026
I77888
asS'ufz_0136.ms'
p4027
(lp4028
I77719
asS'eawag_0518.ms'
p4029
(lp4030
I82874
asS'eawag_0761.ms'
p4031
(lp4032
I2699
asS'washington_0597.ms'
p4033
(lp4034
I5060
aI21236502
aI21236503
asS'ufz_0044.ms'
p4035
(lp4036
I6844
asS'washington_0516.ms'
p4037
(lp4038
I65491
asS'eawag_0748.ms'
p4039
(lp4040
I2181
asS'mpi_0085.ms'
p4041
(lp4042
I5328
asS'mpi_0062.ms'
p4043
(lp4044
I14677
asS'eawag_0619.ms'
p4045
(lp4046
I54849
asS'fiocruz_0095.ms'
p4047
(lp4048
I32042553
asS'eawag_0272.ms'
p4049
(lp4050
I32675211
asS'eawag_0577.ms'
p4051
(lp4052
I3691
asS'riken_0389.ms'
p4053
(lp4054
I4444190
asS'ipb_0001.ms'
p4055
(lp4056
I137235
asS'ipb_0115.ms'
p4057
(lp4058
I14792
asS'metabolights_0028.ms'
p4059
(lp4060
I670
asS'riken_0505.ms'
p4061
(lp4062
I72022
asS'washington_0239.ms'
p4063
(lp4064
I1036
aI21108587
asS'washington_0917.ms'
p4065
(lp4066
I85660
asS'riken_0508.ms'
p4067
(lp4068
I5193737
asS'riken_0634.ms'
p4069
(lp4070
I13835630
asS'mpi_0035.ms'
p4071
(lp4072
I4444051
asS'washington_0482.ms'
p4073
(lp4074
I4444068
asS'eawag_0737.ms'
p4075
(lp4076
I4372750
asS'washington_0533.ms'
p4077
(lp4078
I4444099
asS'jeol_0010.ms'
p4079
(lp4080
I3432979
asS'ipb_0068.ms'
p4081
(lp4082
I89017
asS'eawag_0530.ms'
p4083
(lp4084
I9731688
asS'ufz_0219.ms'
p4085
(lp4086
I63552
asS'eawag_0784.ms'
p4087
(lp4088
I80093
asS'ufz_0037.ms'
p4089
(lp4090
I22739
asS'washington_0745.ms'
p4091
(lp4092
I61532
asS'washington_0238.ms'
p4093
(lp4094
I3002947
asS'eawag_0809.ms'
p4095
(lp4096
I5342
asS'ipb_0021.ms'
p4097
(lp4098
I1116
asS'ipb_0136.ms'
p4099
(lp4100
I277139
asS'ufz_0147.ms'
p4101
(lp4102
I20848
asS'washington_0473.ms'
p4103
(lp4104
I2285
asS'washington_0930.ms'
p4105
(lp4106
I12944655
asS'riken_0594.ms'
p4107
(lp4108
I3805306
asS'fiocruz_0060.ms'
p4109
(lp4110
I23133148
asS'eawag_0683.ms'
p4111
(lp4112
I2157
asS'washington_0838.ms'
p4113
(lp4114
I2548482
asS'eawag_0663.ms'
p4115
(lp4116
I12954
asS'eawag_0792.ms'
p4117
(lp4118
I27628
asS'eawag_0283.ms'
p4119
(lp4120
I2155
asS'mpi_0015.ms'
p4121
(lp4122
I4625
asS'eawag_0460.ms'
p4123
(lp4124
I11003
asS'ipb_0079.ms'
p4125
(lp4126
I49181
asS'eawag_0521.ms'
p4127
(lp4128
I4953634
asS'eawag_0414.ms'
p4129
(lp4130
I7850539
aI10443634
asS'ipb_0074.ms'
p4131
(lp4132
I2726
asS'eawag_0232.ms'
p4133
(lp4134
I3343
asS'washington_0271.ms'
p4135
(lp4136
I368395
asS'eawag_0150.ms'
p4137
(lp4138
I2424
asS'riken_0744.ms'
p4139
(lp4140
I8372743
aI24842173
asS'env_018.ms'
p4141
(lp4142
I13035
asS'riken_0650.ms'
p4143
(lp4144
I21428129
aI21240885
asS'eawag_0427.ms'
p4145
(lp4146
I4764
asS'ufz_0098.ms'
p4147
(lp4148
I9349
asS'riken_1222.ms'
p4149
(lp4150
I22913088
aI24608095
aI24845123
aI10283343
asS'ufz_0105.ms'
p4151
(lp4152
I11443
asS'eawag_0071.ms'
p4153
(lp4154
I5148
asS'washington_0937.ms'
p4155
(lp4156
I600159
asS'ufz_0157.ms'
p4157
(lp4158
I10442445
asS'eawag_0149.ms'
p4159
(lp4160
I82701
asS'eawag_0065.ms'
p4161
(lp4162
I5063
asS'ipb_0048.ms'
p4163
(lp4164
I353308
asS'ufz_0280.ms'
p4165
(lp4166
I4133
asS'fiocruz_0055.ms'
p4167
(lp4168
I3776
asS'fiocruz_0081.ms'
p4169
(lp4170
I2075
asS'eawag_0510.ms'
p4171
(lp4172
I4893
asS'eawag_0384.ms'
p4173
(lp4174
I2831283
asS'eawag_0541.ms'
p4175
(lp4176
I608157
asS'ipb_0019.ms'
p4177
(lp4178
I969
asS'riken_1204.ms'
p4179
(lp4180
I4717304
asS'eawag_0549.ms'
p4181
(lp4182
I4447
asS'eawag_0474.ms'
p4183
(lp4184
I82796
asS'ipb_0011.ms'
p4185
(lp4186
I4944808
asS'ufz_0085.ms'
p4187
(lp4188
I21111842
asS'metabolights_0010.ms'
p4189
(lp4190
I486
asS'riken_0605.ms'
p4191
(lp4192
I513
asS'eawag_0424.ms'
p4193
(lp4194
I2931
asS'ufz_0163.ms'
p4195
(lp4196
I12705
asS'riken_0340.ms'
p4197
(lp4198
I4444395
asS'washington_0109.ms'
p4199
(lp4200
I4437972
asS'eawag_0669.ms'
p4201
(lp4202
I27523939
asS'ufz_0118.ms'
p4203
(lp4204
I2931
asS'eawag_0000.ms'
p4205
(lp4206
I157884
asS'fiocruz_0048.ms'
p4207
(lp4208
I129005
asS'washington_1026.ms'
p4209
(lp4210
I4527569
asS'ufz_0051.ms'
p4211
(lp4212
I185
asS'eawag_0559.ms'
p4213
(lp4214
I3253
aI21236659
aI21240804
asS'ufz_0274.ms'
p4215
(lp4216
I13850879
asS'ufz_0069.ms'
p4217
(lp4218
I716358
asS'washington_1012.ms'
p4219
(lp4220
I12944921
asS'washington_1114.ms'
p4221
(lp4222
I3616
asS'riken_0732.ms'
p4223
(lp4224
I390371
asS'eawag_0083.ms'
p4225
(lp4226
I1262
asS'ufz_0017.ms'
p4227
(lp4228
I15016
asS'riken_0474.ms'
p4229
(lp4230
I778
asS'eawag_0393.ms'
p4231
(lp4232
I10619288
aI21240141
asS'washington_0840.ms'
p4233
(lp4234
I2143733
aI21211285
asS'riken_0618.ms'
p4235
(lp4236
I282
asS'washington_0200.ms'
p4237
(lp4238
I4320
aI21235200
aI21240777
asS'ufz_0070.ms'
p4239
(lp4240
I73147
asS'washington_0333.ms'
p4241
(lp4242
I1989
asS'ufz_0137.ms'
p4243
(lp4244
I24247
asS'eawag_0129.ms'
p4245
(lp4246
I23741
asS'ufz_0247.ms'
p4247
(lp4248
I8104
asS'eawag_0249.ms'
p4249
(lp4250
I3562
asS'fiocruz_0041.ms'
p4251
(lp4252
I55148
asS'eawag_0112.ms'
p4253
(lp4254
I153301
asS'eawag_0056.ms'
p4255
(lp4256
I14620
asS'eawag_0684.ms'
p4257
(lp4258
I1998
asS'eawag_0655.ms'
p4259
(lp4260
I5894
asS'washington_0508.ms'
p4261
(lp4262
I65491
asS'fiocruz_0102.ms'
p4263
(lp4264
I2424
as.