(dp0
S'motif_28'
p1
(dp2
S'beer_1'
p3
(dp4
S'm2m'
p5
I185
sS'degree'
p6
I15
ssS'beer_3'
p7
(dp8
g5
I220
sg6
I32
ssS'beer_2'
p9
(dp10
g5
I166
sg6
I23
ssS'features'
p11
(lp12
S'fragment_136.0629_C5H6N5'
p13
aS'fragment_119.0351_C5H3N4'
p14
asS'annotation'
p15
S'Fragments indicative adenine (C5H6N5) substructure \xe2\x80\x93 most prevalent in Beer3'
p16
sS'beer_4'
p17
(dp18
g5
I24
sg6
I19
sssS'motif_29'
p19
(dp20
S'beer_1'
p21
(dp22
g5
I110
sg6
I42
ssS'beer_3'
p23
(dp24
g5
I97
sg6
I31
ssS'beer_2'
p25
(dp26
g5
I116
sg6
I38
ssg11
(lp27
S'loss_180.0632_C6H12O6'
p28
aS'loss_198.0738_C6H14O7'
p29
aS'fragment_85.0283_C4H5O2'
p30
aS'fragment_69.0337_C4H5O'
p31
aS'fragment_81.0334_C5H5O'
p32
asg15
S'Oxygen-rich losses and fragments also occurring in hexose spectra \xe2\x80\x93 related to M2M 211 (hexose [glucose] conjugatation) \xe2\x80\x93 possibly hydrated-hexose loss?'
p33
sS'beer_4'
p34
(dp35
g5
I29
sg6
I30
sssS'motif_22'
p36
(dp37
S'beer_1'
p38
(dp39
g5
I36
sg6
I36
ssS'beer_3'
p40
(dp41
g5
I209
sg6
I48
ssS'beer_2'
p42
(dp43
g5
I102
sg6
I41
ssg11
(lp44
S'fragment_114.05601_C4H8NO'
p45
aS'fragment_68.0498_C4H6N'
p46
aS'fragment_69.0337_C4H5O'
p47
aS'fragment_53.0026_C3HO'
p48
asg15
S'Possibly suggests 2-pyyrolidine substructure \xe2\x80\x93 Mass2Motif not consistent over the four beers.'
p49
sS'beer_4'
p50
(dp51
g5
I30
sg6
I25
sssS'motif_23'
p52
(dp53
S'beer_1'
p54
(dp55
g5
I40
sg6
I26
ssS'beer_3'
p56
(dp57
g5
I154
sg6
I26
ssS'beer_2'
p58
(dp59
g5
I266
sg6
I24
ssg11
(lp60
S'fragment_71.0687_n/a'
p61
aS'fragment_117.0740_n/a'
p62
asg15
S'C13 isotope peaks of proline (abundant ions taken for fragmentation)'
p63
sS'beer_4'
p64
(dp65
g5
I118
sg6
I5
sssS'motif_20'
p66
(dp67
S'beer_1'
p68
(dp69
g5
I131
sg6
I46
ssS'beer_3'
p70
(dp71
g5
I79
sg6
I20
ssS'beer_2'
p72
(dp73
g5
I108
sg6
I41
ssg11
(lp74
S'fragment_58.0655_C3H8N'
p75
aS'fragment_118.0861_C5H12NO2'
p76
aS'fragment_59.0733_C3H9N'
p77
asg15
S'Fragment ions indicative for trimethylated amine connected to a carboxylic acid group i.e. like in betaine (MzCloud)'
p78
sS'beer_4'
p79
(dp80
g5
I243
sg6
I43
sssS'motif_21'
p81
(dp82
S'beer_1'
p83
(dp84
g5
I142
sg6
I44
ssS'beer_3'
p85
(dp86
g5
I130
sg6
I10
ssS'beer_2'
p87
(dp88
g5
I6
sg6
I19
ssg11
(lp89
S'fragment_112.0511_C4H6N3O'
p90
aS'fragment_95.0239_C4H3N2O'
p91
aS'loss_132.0419_C5H8O4'
p92
aS'loss_149.0685_C5H11NO4'
p93
asg15
S'Fragment ions indicative for cytosine and a loss of conjugated deoxyribose \xe2\x80\x93 possibly combined due to many spectra that combine these two substructures. Loss of NH2 group is likely from remaining fragment after loss of deoxyribose. \xe2\x80\x93 Quite prevalent in Beer1'
p94
sS'beer_4'
p95
(dp96
g5
I69
sg6
I17
sssS'motif_26'
p97
(dp98
S'beer_1'
p99
(dp100
g5
I225
sg6
I17
ssS'beer_3'
p101
(dp102
g5
I168
sg6
I18
ssS'beer_2'
p103
(dp104
g5
I51
sg6
I20
ssg11
(lp105
S'fragment_181.0970_C9H13N2O2'
p106
aS'fragment_209.0925_C10H13N2O3'
p107
aS'fragment_125.0708_C6H9N2O'
p108
asg15
S'Unclear yet what these fragments relate to.'
p109
sS'beer_4'
p110
(dp111
g5
I258
sg6
I18
sssS'motif_27'
p112
(dp113
S'beer_1'
p114
(dp115
g5
I33
sg6
I16
ssS'beer_3'
p116
(dp117
g5
I149
sg6
I16
ssS'beer_2'
p118
(dp119
g5
I118
sg6
I11
ssg11
(lp120
S'fragment_96.0441_C5H6NO'
p121
aS'fragment_124.0398_C6H6NO2'
p122
asg15
S'Possibly suggests 2-pyridone/ol substructure'
p123
sS'beer_4'
p124
(dp125
g5
I172
sg6
I15
sssS'motif_24'
p126
(dp127
S'beer_1'
p128
(dp129
g5
I56
sg6
I19
ssS'beer_3'
p130
(dp131
g5
I34
sg6
I14
ssS'beer_2'
p132
(dp133
g5
I262
sg6
I20
ssg11
(lp134
S'loss_88.0159_C3H4O3'
p135
aS'loss_42.0107_CH2O2'
p136
aS'loss_105.0425_C3H7NO3'
p137
asg15
S'Combination of small losses \xe2\x80\x93 free carboxylgroup and acetyl group loss + loss of NH2 group in some cases'
p138
sS'beer_4'
p139
(dp140
g5
Nsg6
NsssS'motif_25'
p141
(dp142
S'beer_1'
p143
(dp144
g5
I293
sg6
I18
ssS'beer_3'
p145
(dp146
g5
Nsg6
NssS'beer_2'
p147
(dp148
g5
I33
sg6
I15
ssg11
(lp149
S'loss_60.0322_CH4N2O'
p150
aS'loss_59.0483_CH5N3'
p151
aS'fragment_60.0559_CH6N3'
p152
asg15
S'Fragment and losses possibly indicative for guanidino group (CH6N3)'
p153
sS'beer_4'
p154
(dp155
g5
I262
sg6
I14
sssS'motif_39'
p156
(dp157
S'beer_1'
p158
(dp159
g5
I22
sg6
I38
ssS'beer_3'
p160
(dp161
g5
I58
sg6
I42
ssS'beer_2'
p162
(dp163
g5
I133
sg6
I50
ssg11
(lp164
S'fragment_121.0649_C8H9O'
p165
aS'fragment_103.0545_C8H7'
p166
aS'fragment_91.0541_C7H7'
p167
aS'fragment_53.0389_C4H5'
p168
aS'fragment_93.0698_C7H9'
p169
asg15
S'Fragments indicative for ethylphenol substructure (i.e. resulting from Tyramine \xe2\x80\x93 MzCloud)'
p170
sS'beer_4'
p171
(dp172
g5
I185
sg6
I55
sssS'motif_38'
p173
(dp174
S'beer_1'
p175
(dp176
g5
I181
sg6
I11
ssS'beer_3'
p177
(dp178
g5
I19
sg6
I11
ssS'beer_2'
p179
(dp180
g5
I2
sg6
I11
ssg11
(lp181
S'fragment_177.0547_C10H9O3'
p182
aS'fragment_145.0284_C9H5O2'
p183
aS'fragment_89.0386_C9H7'
p184
aS'fragment_117.0331_C8H5O'
p185
aS'fragment_149.0599_C9H9O2'
p186
asg15
S'Fragments indicative for ferulic acid based substructure (MzCloud)'
p187
sS'beer_4'
p188
(dp189
g5
I256
sg6
I10
sssS'motif_35'
p190
(dp191
S'beer_1'
p192
(dp193
g5
I177
sg6
I21
ssS'beer_3'
p194
(dp195
g5
I115
sg6
I28
ssS'beer_2'
p196
(dp197
g5
I117
sg6
I50
ssg11
(lp198
S'fragment_120.0808_C8H10N'
p199
aS'fragment_103.0546_C8H7'
p200
aS'fragment_91.0541_C7H7'
p201
asg15
S'Fragments indicative for [phenylalanine-CHOOH] based substructure'
p202
sS'beer_4'
p203
(dp204
g5
I110
sg6
I26
sssS'motif_34'
p205
(dp206
S'beer_1'
p207
(dp208
g5
I80
sg6
I16
ssS'beer_3'
p209
(dp210
g5
I13
sg6
I10
ssS'beer_2'
p211
(dp212
g5
Nsg6
Nssg11
(lp213
S'fragment_129.0658_C5H9N2O2'
p214
aS'fragment_147.0759_C5H11N2O3'
p215
asg15
S'Fragment ions indicative for glutamine (C5H11N2O3) substructure'
p216
sS'beer_4'
p217
(dp218
g5
Nsg6
NsssS'motif_37'
p219
(dp220
S'beer_1'
p221
(dp222
g5
I195
sg6
I12
ssS'beer_3'
p223
(dp224
g5
I104
sg6
I5
ssS'beer_2'
p225
(dp226
g5
Nsg6
Nssg11
(lp227
S'fragment_80.0495_C5H6N'
p228
aS'fragment_164.0346_C8H6NO3'
p229
aS'fragment_136.0397_C7H6NO2'
p230
aS'fragment_53.0389_C4H5'
p231
aS'fragment_65.0388_C5H5'
p232
asg15
S'Unclear what these fragments relate to.'
p233
sS'beer_4'
p234
(dp235
g5
Nsg6
NsssS'motif_36'
p236
(dp237
S'beer_1'
p238
(dp239
g5
I67
sg6
I14
ssS'beer_3'
p240
(dp241
g5
I162
sg6
I12
ssS'beer_2'
p242
(dp243
g5
I269
sg6
I18
ssg11
(lp244
S'fragment_152.0560_C5H6N5O'
p245
aS'fragment_153.0407_C5H5N4O2'
p246
aS'fragment_110.0346_C4H4N3O'
p247
aS'fragment_135.0300_C5H3N4O'
p248
aS'fragment_55.0295_C2H3N2'
p249
asg15
S'Fragment ions indicative for guanine (C5H5N5O) based substructure'
p250
sS'beer_4'
p251
(dp252
g5
I11
sg6
I13
sssS'motif_31'
p253
(dp254
S'beer_1'
p255
(dp256
g5
I298
sg6
I21
ssS'beer_3'
p257
(dp258
g5
I90
sg6
I12
ssS'beer_2'
p259
(dp260
g5
I77
sg6
I10
ssg11
(lp261
S'loss_78.0316_C2H6O3'
p262
aS'loss_120.0420_C4H8O4'
p263
aS'loss_108.0421_C3H8O4'
p264
aS'loss_66.0320_CH6O3'
p265
asg15
S'Combinations of small generic losses like CH2O2 + CH4O = C2H6O3'
p266
sS'beer_4'
p267
(dp268
g5
I98
sg6
I24
sssS'motif_30'
p269
(dp270
S'beer_1'
p271
(dp272
g5
I279
sg6
I23
ssS'beer_3'
p273
(dp274
g5
I55
sg6
I23
ssS'beer_2'
p275
(dp276
g5
I202
sg6
I22
ssg11
(lp277
S'fragment_91.0541_C7H7'
p278
aS'fragment_119.0488_C8H7O'
p279
aS'fragment_147.0437_C9H7O2'
p280
aS'fragment_65.0388_C5H5'
p281
asg15
S'Fragments indicative for cinnamic acid (cinnamate) substructure (MzCloud)'
p282
sS'beer_4'
p283
(dp284
g5
I157
sg6
I27
sssS'motif_33'
p285
(dp286
S'beer_1'
p287
(dp288
g5
I114
sg6
I18
ssS'beer_3'
p289
(dp290
g5
Nsg6
NssS'beer_2'
p291
(dp292
g5
Nsg6
Nssg11
(lp293
S'loss_59.0370_C2H5NO'
p294
aS'loss_89.0476_C3H7NO2'
p295
aS'loss_42.0107_CH2O'
p296
aS'loss_87.0320_C4H9NO'
p297
asg15
S'Combinations of small generic losses like C2H2O + NH3 = C2H5NO'
p298
sS'beer_4'
p299
(dp300
g5
I181
sg6
I17
sssS'motif_32'
p301
(dp302
S'beer_1'
p303
(dp304
g5
I294
sg6
I19
ssS'beer_3'
p305
(dp306
g5
I241
sg6
I21
ssS'beer_2'
p307
(dp308
g5
I289
sg6
I27
ssg11
(lp309
S'fragment_110.0718_C5H8N3'
p310
aS'fragment_156.0769_C6H10N3O2'
p311
aS'fragment_93.0450_C5H5N2'
p312
aS'fragment_95.0608_C5H7N2'
p313
asg15
S'Fragments indicative for histidine (C6H10N3O2) substructure (MzCloud)'
p314
sS'beer_4'
p315
(dp316
g5
I47
sg6
I25
sssS'motif_48'
p317
(dp318
S'beer_1'
p319
(dp320
g5
I2
sg6
I7
ssS'beer_3'
p321
(dp322
g5
I102
sg6
I67
ssS'beer_2'
p323
(dp324
g5
I113
sg6
I57
ssg11
(lp325
S'fragment_67.0545_C5H7'
p326
aS'fragment_81.0700_C6H9'
p327
aS'fragment_55.0540_C4H7'
p328
aS'fragment_149.1325_C11H17'
p329
aS'fragment_277.2173_C18H29O2'
p330
aS'fragment_295.2288_C18H31O3'
p331
aS'fragment_93.0698_C7H9'
p332
aS'fragment_71.0857_C5H11'
p333
aS'fragment_141.1273_C9H17O'
p334
aS'fragment_169.1226_C10H17O2'
p335
asg15
S'Possibly suggests alkylbenzene substructure.'
p336
sS'beer_4'
p337
(dp338
g5
I233
sg6
I46
sssS'motif_49'
p339
(dp340
S'beer_1'
p341
(dp342
g5
I166
sg6
I9
ssS'beer_3'
p343
(dp344
g5
I121
sg6
I10
ssS'beer_2'
p345
(dp346
g5
I227
sg6
I19
ssg11
(lp347
S'fragment_146.0811_C6H12NO3'
p348
aS'fragment_128.0703_C6H10NO2'
p349
aS'fragment_81.0334_C5H5O'
p350
aS'fragment_83.0490_C3H7O'
p351
asg15
S'Possibly suggests 4-aminooxane-4-carboxylic acid like substructure?'
p352
sS'beer_4'
p353
(dp354
g5
I49
sg6
I8
sssS'motif_40'
p355
(dp356
S'beer_1'
p357
(dp358
g5
I85
sg6
I37
ssS'beer_3'
p359
(dp360
g5
I69
sg6
I47
ssS'beer_2'
p361
(dp362
g5
Nsg6
Nssg11
(lp363
S'fragment_69.0337_C4H5O'
p364
aS'fragment_57.0337_C3H5O'
p365
aS'fragment_73.0285_C3H5O2'
p366
asg15
S'Fragment ions possibly indicative for ribose substructure (MzCloud)'
p367
sS'beer_4'
p368
(dp369
g5
I164
sg6
I39
sssS'motif_41'
p370
(dp371
S'beer_1'
p372
(dp373
g5
I26
sg6
I31
ssS'beer_3'
p374
(dp375
g5
I7
sg6
I25
ssS'beer_2'
p376
(dp377
g5
I15
sg6
I36
ssg11
(lp378
S'fragment_104.1070_C5H14NO'
p379
aS'fragment_60.0810_C3H10N'
p380
asg15
S'Possibly suggests 5-aminopentanol substructure'
p381
sS'beer_4'
p382
(dp383
g5
I37
sg6
I25
sssS'motif_42'
p384
(dp385
S'beer_1'
p386
(dp387
g5
I143
sg6
I11
ssS'beer_3'
p388
(dp389
g5
I72
sg6
I5
ssS'beer_2'
p390
(dp391
g5
Nsg6
Nssg11
(lp392
S'fragment_150.0557_C8H8NO2'
p393
aS'fragment_178.0501_C9H8NO3'
p394
aS'fragment_95.0494_C6H7O'
p395
aS'fragment_135.0310_C7H5NO2'
p396
asg15
S'Possibly suggests methoxy-1H-indole-23-dione (methoxy-isatin) substructure'
p397
sS'beer_4'
p398
(dp399
g5
Nsg6
NsssS'motif_43'
p400
(dp401
S'beer_1'
p402
(dp403
g5
I245
sg6
I12
ssS'beer_3'
p404
(dp405
g5
I202
sg6
I15
ssS'beer_2'
p406
(dp407
g5
I71
sg6
I20
ssg11
(lp408
S'fragment_118.0654_C8H8N'
p409
aS'fragment_117.0571_C8H7N'
p410
aS'fragment_91.0541_C7H7'
p411
aS'fragment_130.0645_C9H8N'
p412
aS'fragment_188.0706_C11H10NO2'
p413
asg15
S'Fragments indicative of [tryptophan-NH3] related substructure (C8H8N is the basic indole skeleton a fused benzene and 5 membered N-containing ring)'
p414
sS'beer_4'
p415
(dp416
g5
Nsg6
NsssS'motif_44'
p417
(dp418
S'beer_1'
p419
(dp420
g5
I244
sg6
I16
ssS'beer_3'
p421
(dp422
g5
Nsg6
NssS'beer_2'
p423
(dp424
g5
I291
sg6
I22
ssg11
(lp425
S'loss_36.0183_H4O2'
p426
aS'loss_162.0525_C6H10O5'
p427
aS'loss_138.0526_C7H8NO2'
p428
aS'loss_196.0583_C6H12O7'
p429
aS'loss_150.0526_C5H10O5'
p430
aS'loss_64.0150_CH4O3'
p431
aS'loss_184.0578_C5H12O7'
p432
aS'fragment_112.0398_C5H6NO2'
p433
aS'fragment_87.0316_C3H5NO2'
p434
asg15
S'Possibly suggests iminosugar like substructure. Losses related to sugar (polyhydroxylated structure)'
p435
sS'beer_4'
p436
(dp437
g5
Nsg6
NsssS'motif_45'
p438
(dp439
S'beer_1'
p440
(dp441
g5
I146
sg6
I27
ssS'beer_3'
p442
(dp443
g5
I82
sg6
I28
ssS'beer_2'
p444
(dp445
g5
I238
sg6
I9
ssg11
(lp446
S'fragment_131.1292_C5H15N4'
p447
aS'fragment_72.0809_C4H10N'
p448
aS'fragment_114.1028_C5H12N3'
p449
aS'fragment_98.0600_C5H8NO'
p450
aS'fragment_60.0559_CH6N3'
p451
aS'fragment_157.1084_C6H13N4O'
p452
aS'fragment_278.0554_C17H14O4'
p453
aS'fragment_207.0796_C15H11O'
p454
asg15
S'Possibly suggests agmatine based substructure (C5H15N4) with unknown conjugation\xe2\x80\xa6.'
p455
sS'beer_4'
p456
(dp457
g5
I286
sg6
I8
sssS'motif_46'
p458
(dp459
S'beer_1'
p460
(dp461
g5
I5
sg6
I12
ssS'beer_3'
p462
(dp463
g5
I68
sg6
I10
ssS'beer_2'
p464
(dp465
g5
I126
sg6
I13
ssg11
(lp466
S'fragment_258.1335_C12H20NO5'
p467
aS'fragment_276.1435_C12H22NO6'
p468
aS'fragment_230.1398_C11H20NO4'
p469
aS'fragment_212.1277_C11H18NO3'
p470
asg15
S'Possibly suggests iminosugar like substructure. Fragments have losses (H2O CO) related to sugar (polyhydroxylated structure)'
p471
sS'beer_4'
p472
(dp473
g5
I101
sg6
I7
sssS'motif_47'
p474
(dp475
S'beer_1'
p476
(dp477
g5
I211
sg6
I81
ssS'beer_3'
p478
(dp479
g5
I131
sg6
I129
ssS'beer_2'
p480
(dp481
g5
I111
sg6
I124
ssg11
(lp482
S'fragment_85.0283_C4H5O2'
p483
aS'fragment_145.0550_C6H9O4'
p484
aS'fragment_127.0387_C6H7O3'
p485
aS'fragment_97.0284_C5H5O2'
p486
aS'fragment_69.0337_C4H4O'
p487
aS'fragment_163.0605_C6H11O5'
p488
asg15
S'Fragments indicative of a [hexose-H2O] substructure \xe2\x80\x93 i.e. indicative for a hexose (like glucose) conjugation (MzCloud)'
p489
sS'beer_4'
p490
(dp491
g5
I52
sg6
I58
sssS'motif_59'
p492
(dp493
S'beer_1'
p494
(dp495
g5
Nsg6
NssS'beer_3'
p496
(dp497
g5
I230
sg6
I31
ssS'beer_2'
p498
(dp499
g5
I187
sg6
I30
ssg11
(lp500
S'fragment_87.0439_C4H7O2'
p501
aS'loss_86.0366_C4H6O2'
p502
aS'fragment_104.0711_C4H10NO2'
p503
aS'fragment_69.0337_C4H5O'
p504
asg15
S'Fragments indicative for y-aminobutyric acid (amimobutyrate) substructure (MzCloud) \xe2\x80\x93 present in Beer 2 & Beer 3 \xe2\x80\x93 in beer 3 mainly based on C4H7O2 fragment.'
p505
sS'beer_4'
p506
(dp507
g5
Nsg6
NsssS'motif_58'
p508
(dp509
S'beer_1'
p510
(dp511
g5
Nsg6
NssS'beer_3'
p512
(dp513
g5
Nsg6
NssS'beer_2'
p514
(dp515
g5
I243
sg6
I16
ssg11
(lp516
S'loss_143.0580_C6H9NO3'
p517
aS'loss_99.0682_C5H9NO'
p518
asg15
S'Unclear what these fragments relate to.'
p519
sS'beer_4'
p520
(dp521
g5
Nsg6
NsssS'motif_53'
p522
(dp523
S'beer_1'
p524
(dp525
g5
Nsg6
NssS'beer_3'
p526
(dp527
g5
Nsg6
NssS'beer_2'
p528
(dp529
g5
I217
sg6
I29
ssg11
(lp530
S'loss_35.0343_H5NO'
p531
asg15
S'Combined (sequential) H2O and NH3 loss'
p532
sS'beer_4'
p533
(dp534
g5
Nsg6
NsssS'motif_52'
p535
(dp536
S'beer_1'
p537
(dp538
g5
Nsg6
NssS'beer_3'
p539
(dp540
g5
I290
sg6
I69
ssS'beer_2'
p541
(dp542
g5
I240
sg6
I59
ssg11
(lp543
S'fragment_69.0701_C5H9'
p544
aS'fragment_53.0026_C3HO'
p545
asg15
S'Two small fragments unclear if they represent a substructure'
p546
sS'beer_4'
p547
(dp548
g5
I191
sg6
I72
sssS'motif_51'
p549
(dp550
S'beer_1'
p551
(dp552
g5
Nsg6
NssS'beer_3'
p553
(dp554
g5
I176
sg6
I57
ssS'beer_2'
p555
(dp556
g5
I162
sg6
I86
ssg11
(lp557
S'fragment_91.0541_C7H7'
p558
asg15
S'Small abundant and generic aromatic fragment found across several mass patterns.'
p559
sS'beer_4'
p560
(dp561
g5
I129
sg6
I80
sssS'motif_50'
p562
(dp563
S'beer_1'
p564
(dp565
g5
Nsg6
NssS'beer_3'
p566
(dp567
g5
Nsg6
NssS'beer_2'
p568
(dp569
g5
I75
sg6
I14
ssg11
(lp570
S'fragment_86.0314_N/A'
p571
aS'fragment_146.0528_N/A'
p572
aS'fragment_128.0428_N/A'
p573
asg15
S'Isotope M2M of 111 (glycoside/hexoside related)'
p574
sS'beer_4'
p575
(dp576
g5
I46
sg6
I12
sssS'motif_57'
p577
(dp578
S'beer_1'
p579
(dp580
g5
Nsg6
NssS'beer_3'
p581
(dp582
g5
I222
sg6
I11
ssS'beer_2'
p583
(dp584
g5
I134
sg6
I18
ssg11
(lp585
S'fragment_60.0448_C2H6NO'
p586
aS'fragment_106.0497_C3H8NO3'
p587
aS'fragment_88.0392_C3H6NO2'
p588
aS'loss_115.0268_C4H5NO3'
p589
asg15
S'Fragments (and loss) indicative for serine substructure (MzCloud) - Present in Beer 2 & Beer 3'
p590
sS'beer_4'
p591
(dp592
g5
Nsg6
NsssS'motif_56'
p593
(dp594
S'beer_1'
p595
(dp596
g5
Nsg6
NssS'beer_3'
p597
(dp598
g5
I233
sg6
I16
ssS'beer_2'
p599
(dp600
g5
I260
sg6
I29
ssg11
(lp601
S'loss_64.0161_CH4O3'
p602
aS'loss_92.0108_C2H4O4'
p603
asg15
S'Combination of small losses (CO2 H2O etc.) \xe2\x80\x93 Unclear if they relate to a substructure loss.'
p604
sS'beer_4'
p605
(dp606
g5
I137
sg6
I18
sssS'motif_55'
p607
(dp608
S'beer_1'
p609
(dp610
g5
Nsg6
NssS'beer_3'
p611
(dp612
g5
I221
sg6
I42
ssS'beer_2'
p613
(dp614
g5
I88
sg6
I62
ssg11
(lp615
S'fragment_57.0701_C4H9'
p616
aS'fragment_85.0648_C5H9O'
p617
aS'fragment_67.0546_C5H7'
p618
aS'fragment_53.0026_C3HO'
p619
asg15
S'Unclear yet what these fragments relate to.'
p620
sS'beer_4'
p621
(dp622
g5
I263
sg6
I68
sssS'motif_54'
p623
(dp624
S'beer_1'
p625
(dp626
g5
I184
sg6
I9
ssS'beer_3'
p627
(dp628
g5
I207
sg6
I13
ssS'beer_2'
p629
(dp630
g5
I36
sg6
I13
ssg11
(lp631
S'fragment_152.0703_C8H10NO2'
p632
aS'fragment_134.0600_C8H8NO'
p633
asg15
S'Unclear what these fragments relate to.'
p634
sS'beer_4'
p635
(dp636
g5
I116
sg6
I17
sssS'motif_3'
p637
(dp638
S'beer_1'
p639
(dp640
g5
I148
sg6
I67
ssS'beer_3'
p641
(dp642
g5
I195
sg6
I98
ssS'beer_2'
p643
(dp644
g5
I20
sg6
I106
ssg11
(lp645
S'fragment_72.0807_C4H10N'
p646
aS'fragment_55.0546_C4H7'
p647
asg15
S'Aliphatic amine (NH3 loss indicates free NH2 group coupled to aliphatic chain)'
p648
sS'beer_4'
p649
(dp650
g5
I77
sg6
I49
sssS'motif_2'
p651
(dp652
S'beer_1'
p653
(dp654
g5
I230
sg6
I99
ssS'beer_3'
p655
(dp656
g5
I262
sg6
I90
ssS'beer_2'
p657
(dp658
g5
I208
sg6
I100
ssg11
(lp659
S'loss_46.0053_CH2O2'
p660
asg15
S'Combined loss of H2O and CO \xe2\x80\x93 indicative for free carboxylic acid group (COOH) \xe2\x80\x93 generic substructure in amino acids and organic acids'
p661
sS'beer_4'
p662
(dp663
g5
I273
sg6
I80
sssS'motif_1'
p664
(dp665
S'beer_1'
p666
(dp667
g5
I37
sg6
I127
ssS'beer_3'
p668
(dp669
g5
I260
sg6
I123
ssS'beer_2'
p670
(dp671
g5
I182
sg6
I142
ssg11
(lp672
S'loss_18.0080_H2O'
p673
asg15
S'Water loss  - indicative of a free hydroxyl group) \xe2\x80\x93 often seen in sugary structures'
p674
sS'beer_4'
p675
(dp676
g5
I193
sg6
I142
sssS'motif_0'
p677
(dp678
S'beer_1'
p679
(dp680
g5
I52
sg6
I199
ssS'beer_3'
p681
(dp682
g5
I2
sg6
I229
ssS'beer_2'
p683
(dp684
g5
I65
sg6
I282
ssg11
(lp685
S'fragment_70.0652_C4H8N'
p686
asg15
S'Small nitrogen containing fragment ion \xe2\x80\x93 often proline or ornithine derived \xe2\x80\x93 most abundant fragment in all four beers'
p687
sS'beer_4'
p688
(dp689
g5
I9
sg6
I228
sssS'motif_7'
p690
(dp691
S'beer_1'
p692
(dp693
g5
I45
sg6
I39
ssS'beer_3'
p694
(dp695
g5
I243
sg6
I30
ssS'beer_2'
p696
(dp697
g5
I268
sg6
I6
ssg11
(lp698
S'fragment_98.9839_H4O4P'
p699
asg15
S'Fragment ion indicative for conjugation of a phosphate group  (H4O4P)'
p700
sS'beer_4'
p701
(dp702
g5
I149
sg6
I31
sssS'motif_6'
p703
(dp704
S'beer_1'
p705
(dp706
g5
I217
sg6
I61
ssS'beer_3'
p707
(dp708
g5
I158
sg6
I66
ssS'beer_2'
p709
(dp710
g5
I89
sg6
I101
ssg11
(lp711
S'fragment_86.0965_C5H12N'
p712
aS'fragment_132.1016_C6H14NO2'
p713
asg15
S'Leucine related substructure (mzCloud) \xe2\x80\x93 prevalent in Beer 2'
p714
sS'beer_4'
p715
(dp716
g5
I169
sg6
I38
sssS'motif_5'
p717
(dp718
S'beer_1'
p719
(dp720
g5
I55
sg6
I14
ssS'beer_3'
p721
(dp722
g5
Nsg6
NssS'beer_2'
p723
(dp724
g5
Nsg6
Nssg11
(lp725
S'loss_74.0002_C2H3O2'
p726
asg15
S'Free CO2 + CO loss loss part of CH2O2-loss M2M for other beers'
p727
sS'beer_4'
p728
(dp729
g5
Nsg6
NsssS'motif_4'
p730
(dp731
S'beer_1'
p732
(dp733
g5
I24
sg6
I24
ssS'beer_3'
p734
(dp735
g5
I226
sg6
I29
ssS'beer_2'
p736
(dp737
g5
I168
sg6
I25
ssg11
(lp738
S'loss_162.0531_C5H10O5'
p739
asg15
S'Loss of [hexose-H2O] \xe2\x80\x93 indication of hexose conjugation (for example glucose)'
p740
sS'beer_4'
p741
(dp742
g5
I189
sg6
I25
sssS'motif_9'
p743
(dp744
S'beer_1'
p745
(dp746
g5
I238
sg6
I31
ssS'beer_3'
p747
(dp748
g5
I53
sg6
I25
ssS'beer_2'
p749
(dp750
g5
I46
sg6
I20
ssg11
(lp751
S'loss_179.0791_C6H13NO5'
p752
aS'loss_197.0899_C6H15NO6'
p753
asg15
S'Losses indicative of a hexose with NH2 group \xe2\x80\x93 EF fits'
p754
sS'beer_4'
p755
(dp756
g5
I250
sg6
I27
sssS'motif_8'
p757
(dp758
S'beer_1'
p759
(dp760
g5
I74
sg6
I36
ssS'beer_3'
p761
(dp762
g5
Nsg6
NssS'beer_2'
p763
(dp764
g5
Nsg6
Nssg11
(lp765
S'fragment_85.0283_C4H5O2'
p766
aS'fragment_57.0332_C3H5O'
p767
asg15
S'Two small fragments with CO loss in between. Unclear if it points to a specific substructure.'
p768
sS'beer_4'
p769
(dp770
g5
I210
sg6
I98
sssS'motif_68'
p771
(dp772
S'beer_1'
p773
(dp774
g5
I125
sg6
I13
ssS'beer_3'
p775
(dp776
g5
I17
sg6
I6
ssS'beer_2'
p777
(dp778
g5
I246
sg6
I18
ssg11
(lp779
S'fragment_136.0760_C8H10NO'
p780
aS'fragment_107.0493_C7H7O'
p781
aS'fragment_91.0543_C7H7'
p782
aS'fragment_95.0494_C6H7O'
p783
aS'fragment_123.0447_C7H7O2'
p784
aS'fragment_119.0488_C8H7O'
p785
aS'fragment_182.0822_C9H12NO3'
p786
asg15
S' Fragments indicative for tyrosine substructure (MzCloud)'
p787
sS'beer_4'
p788
(dp789
g5
I8
sg6
I10
sssS'motif_69'
p790
(dp791
S'beer_1'
p792
(dp793
g5
I228
sg6
I5
ssS'beer_3'
p794
(dp795
g5
I4
sg6
I6
ssS'beer_2'
p796
(dp797
g5
I200
sg6
I10
ssg11
(lp798
S'fragment_260.1117_C11H18NO6'
p799
aS'fragment_128.0704_C6H10NO2'
p800
aS'fragment_242.1011_C11H16NO5'
p801
aS'fragment_100.0754_C5H10NO'
p802
asg15
S'Unclear yet what these fragments relate to.'
p803
sS'beer_4'
p804
(dp805
g5
I121
sg6
I11
sssS'motif_66'
p806
(dp807
S'beer_1'
p808
(dp809
g5
Nsg6
NssS'beer_3'
p810
(dp811
g5
I294
sg6
I11
ssS'beer_2'
p812
(dp813
g5
I153
sg6
I19
ssg11
(lp814
S'fragment_180.1013_C10H14NO3'
p815
aS'fragment_162.0915_C10H12NO2'
p816
asg15
S'Unclear what these fragments relate to.'
p817
sS'beer_4'
p818
(dp819
g5
Nsg6
NsssS'motif_67'
p820
(dp821
S'beer_1'
p822
(dp823
g5
I281
sg6
I9
ssS'beer_3'
p824
(dp825
g5
I249
sg6
I12
ssS'beer_2'
p826
(dp827
g5
I77
sg6
I10
ssg11
(lp828
S'fragment_138.0545_C7H8NO2'
p829
aS'fragment_140.1065_C7H10NO2'
p830
aS'fragment_186.0758_C8H12NO4'
p831
aS'fragment_168.0650_C8H10NO3'
p832
asg15
S'Unclear yet what these fragments relate to.'
p833
sS'beer_4'
p834
(dp835
g5
I26
sg6
I11
sssS'motif_64'
p836
(dp837
S'beer_1'
p838
(dp839
g5
I6
sg6
I6
ssS'beer_3'
p840
(dp841
g5
I67
sg6
I3
ssS'beer_2'
p842
(dp843
g5
I290
sg6
I11
ssg11
(lp844
S'fragment_68.9972_C3HO2'
p845
aS'fragment_111.0076_C5H3O3'
p846
aS'fragment_129.0186_C5H5O4'
p847
aS'fragment_157.0131_C6H5O5'
p848
asg15
S'Fragment ions indicative for aconitic acid substructure (C3HO2 fragment is quite specific)'
p849
sS'beer_4'
p850
(dp851
g5
I67
sg6
I5
sssS'motif_65'
p852
(dp853
S'beer_1'
p854
(dp855
g5
Nsg6
NssS'beer_3'
p856
(dp857
g5
Nsg6
NssS'beer_2'
p858
(dp859
g5
I224
sg6
I10
ssg11
(lp860
S'loss_53.0476_NH7O2'
p861
aS'loss_71.0583_NH9O3'
p862
asg15
S'Combination of small losses (NH3 H2O) \xe2\x80\x93 Unclear if they relate to a substructure loss.'
p863
sS'beer_4'
p864
(dp865
g5
I71
sg6
I10
sssS'motif_62'
p866
(dp867
S'beer_1'
p868
(dp869
g5
I62
sg6
I13
ssS'beer_3'
p870
(dp871
g5
I136
sg6
I19
ssS'beer_2'
p872
(dp873
g5
I66
sg6
I24
ssg11
(lp874
S'fragment_95.0607_C5H7N2'
p875
aS'fragment_68.0498_C4H6N'
p876
asg15
S'Unclear what these fragments relate to. Possibly small ring structure (CHN loss)'
p877
sS'beer_4'
p878
(dp879
g5
I66
sg6
I15
sssS'motif_63'
p880
(dp881
S'beer_1'
p882
(dp883
g5
I107
sg6
I9
ssS'beer_3'
p884
(dp885
g5
Nsg6
NssS'beer_2'
p886
(dp887
g5
I263
sg6
I16
ssg11
(lp888
S'fragment_128.1074_C7H14NO'
p889
aS'loss_60.0576_C2H4O2'
p890
aS'loss_42.0470_C2H2O'
p891
aS'fragment_110.0970_C7H12N'
p892
asg15
S' Unclear what these fragments relate to.'
p893
sS'beer_4'
p894
(dp895
g5
Nsg6
NsssS'motif_60'
p896
(dp897
S'beer_1'
p898
(dp899
g5
I93
sg6
I34
ssS'beer_3'
p900
(dp901
g5
I12
sg6
I44
ssS'beer_2'
p902
(dp903
g5
I259
sg6
I41
ssg11
(lp904
S'loss_27.9941_CO'
p905
aS'loss_30.0100_CH2O'
p906
aS'loss_55.9897_C2O2'
p907
aS'loss_54.0102_C3H2O'
p908
asg15
S'Combination of small losses (CO2 H2O etc.) \xe2\x80\x93 Unclear if they relate to a substructure loss.'
p909
sS'beer_4'
p910
(dp911
g5
I229
sg6
I32
sssS'motif_61'
p912
(dp913
S'beer_1'
p914
(dp915
g5
Nsg6
NssS'beer_3'
p916
(dp917
g5
I227
sg6
I29
ssS'beer_2'
p918
(dp919
g5
I10
sg6
I32
ssg11
(lp920
S'fragment_111.0443_C6H7O2'
p921
aS'fragment_83.0490_C5H7O'
p922
aS'fragment_55.0547_C4H7'
p923
asg15
S'Possibly related to 14-Cyclohex-2-enedione substructure \xe2\x80\x93 double CO loss between fragments. Could be alkaloid fragments as well.'
p924
sS'beer_4'
p925
(dp926
g5
I151
sg6
I53
sssS'motif_71'
p927
(dp928
S'beer_1'
p929
(dp930
g5
Nsg6
NssS'beer_3'
p931
(dp932
g5
I188
sg6
I10
ssS'beer_2'
p933
(dp934
g5
I254
sg6
I15
ssg11
(lp935
S'fragment_73.0285_C3H5O2'
p936
aS'fragment_133.0499_C5H9O4'
p937
aS'fragment_57.0337_C3H5O'
p938
aS'fragment_115.0391_C5H7O3'
p939
asg15
S'Unclear yet \xe2\x80\x93 possibly related to methylsuccinic acid\xe2\x80\xa6.'
p940
sS'beer_4'
p941
(dp942
g5
I42
sg6
I14
sssS'motif_70'
p943
(dp944
S'beer_1'
p945
(dp946
g5
Nsg6
NssS'beer_3'
p947
(dp948
g5
I41
sg6
I32
ssS'beer_2'
p949
(dp950
g5
I173
sg6
I25
ssg11
(lp951
S'fragment_130.0506_C5H8NO3'
p952
aS'fragment_97.0284_C5H5O2'
p953
aS'fragment_238.0714_C11H12NO5'
p954
aS'fragment_226.0718_C10H12NO5'
p955
aS'fragment_274.0920_C11H16NO7'
p956
asg15
S'Unclear yet what these fragments relate to.'
p957
sS'beer_4'
p958
(dp959
g5
I128
sg6
I5
sssS'motif_73'
p960
(dp961
S'beer_1'
p962
(dp963
g5
I197
sg6
I14
ssS'beer_3'
p964
(dp965
g5
I250
sg6
I22
ssS'beer_2'
p966
(dp967
g5
I67
sg6
I22
ssg11
(lp968
S'loss_63.0319_CH5NO2'
p969
aS'loss_45.0578_C2H7N'
p970
aS'loss_91.0268_C2H5NO3'
p971
asg15
S'Combination of small losses (i.e. NH3 and CH2O2)'
p972
sS'beer_4'
p973
(dp974
g5
Nsg6
NsssS'motif_72'
p975
(dp976
S'beer_1'
p977
(dp978
g5
Nsg6
NssS'beer_3'
p979
(dp980
g5
I128
sg6
I15
ssS'beer_2'
p981
(dp982
g5
Nsg6
Nssg11
(lp983
S'loss_42.0107_CH2O2'
p984
asg15
S'N/O-Acetylation (Beer 3)'
p985
sS'beer_4'
p986
(dp987
g5
Nsg6
NsssS'motif_75'
p988
(dp989
S'beer_1'
p990
(dp991
g5
Nsg6
NssS'beer_3'
p992
(dp993
g5
I291
sg6
I22
ssS'beer_2'
p994
(dp995
g5
I78
sg6
I14
ssg11
(lp996
S'fragment_55.0547_C4H7'
p997
aS'fragment_73.0647_C4H9O'
p998
asg15
S'Unclear if fragments relate to a specific substructure. H2O loss between fragments.'
p999
sS'beer_4'
p1000
(dp1001
g5
I173
sg6
I12
sssS'motif_74'
p1002
(dp1003
S'beer_1'
p1004
(dp1005
g5
Nsg6
NssS'beer_3'
p1006
(dp1007
g5
I272
sg6
I12
ssS'beer_2'
p1008
(dp1009
g5
I96
sg6
I18
ssg11
(lp1010
S'fragment_74.0598_C3H8NO'
p1011
aS'fragment_56.0497_C3H6N'
p1012
asg15
S'Unclear if fragments relate to a specific substructure.'
p1013
sS'beer_4'
p1014
(dp1015
g5
I199
sg6
I14
sssS'motif_77'
p1016
(dp1017
S'beer_1'
p1018
(dp1019
g5
I286
sg6
I6
ssS'beer_3'
p1020
(dp1021
g5
I42
sg6
I17
ssS'beer_2'
p1022
(dp1023
g5
I145
sg6
I9
ssg11
(lp1024
S'fragment_74.0235_C2H4NO2'
p1025
aS'fragment_88.0392_C3H6NO2'
p1026
aS'fragment_70.0290_C3H4NO'
p1027
aS'fragment_87.0554_C3H7N2O'
p1028
aS'fragment_133.0615_C4H9N2O3'
p1029
aS'fragment_116.0344_C4H6NO3'
p1030
asg15
S'Fragments indicative for asparagine substructure (MzCloud) \xe2\x80\x93 prevalent in Beer 3'
p1031
sS'beer_4'
p1032
(dp1033
g5
Nsg6
NsssS'motif_76'
p1034
(dp1035
S'beer_1'
p1036
(dp1037
g5
Nsg6
NssS'beer_3'
p1038
(dp1039
g5
I139
sg6
I20
ssS'beer_2'
p1040
(dp1041
g5
Nsg6
Nssg11
(lp1042
S'fragment_89.0600_C4H9O2'
p1043
aS'fragment_133.0863_C6H13O3'
p1044
aS'fragment_177.1128_C8H17O4'
p1045
aS'fragment_111.0443_C6H7O2'
p1046
asg15
S'Unclear yet what these fragments relate to.'
p1047
sS'beer_4'
p1048
(dp1049
g5
I132
sg6
I15
sssS'motif_79'
p1050
(dp1051
S'beer_1'
p1052
(dp1053
g5
I124
sg6
I7
ssS'beer_3'
p1054
(dp1055
g5
I166
sg6
I10
ssS'beer_2'
p1056
(dp1057
g5
I4
sg6
I19
ssg11
(lp1058
S'fragment_126.0665_C5H8N3O'
p1059
aS'fragment_109.03976_C5H5N2O'
p1060
aS'fragment_108.0560_C5H6N3'
p1061
asg15
S'Fragment ions indicative for 5-methylcytosine substructure (MzCloud) \xe2\x80\x93 prevalent in Beer 2'
p1062
sS'beer_4'
p1063
(dp1064
g5
I78
sg6
I6
sssS'motif_78'
p1065
(dp1066
S'beer_1'
p1067
(dp1068
g5
I7
sg6
I10
ssS'beer_3'
p1069
(dp1070
g5
I91
sg6
I14
ssS'beer_2'
p1071
(dp1072
g5
I165
sg6
I24
ssg11
(lp1073
S'fragment_108.0443_C6H6NO'
p1074
aS'fragment_80.0495_C5H6N'
p1075
aS'fragment_53.0389_C4H5'
p1076
asg15
S'Fragments possibly suggest benzene ring substituted with one hydroxyl and one NH2 group (fragments point to orientation from 3-hydroxyanthranilic acid \xe2\x80\x93 i.e. MzCloud) \xe2\x80\x93 prevalent in Beer 2 and 4'
p1077
sS'beer_4'
p1078
(dp1079
g5
I84
sg6
I34
sssS'motif_17'
p1080
(dp1081
S'beer_1'
p1082
(dp1083
g5
I160
sg6
I14
ssS'beer_3'
p1084
(dp1085
g5
I284
sg6
I30
ssS'beer_2'
p1086
(dp1087
g5
I298
sg6
I44
ssg11
(lp1088
S'fragment_109.0288_C6H5O2'
p1089
aS'fragment_81.0333_C5H5O'
p1090
aS'fragment_53.0888_C4H5'
p1091
asg15
S'Fragments indicative for dihydroxylated benzene ring substructure (MzCloud) \xe2\x80\x93 C6H5O2 fragment corresponds to positively charged fragment with two hydroxyl groups.'
p1092
sS'beer_4'
p1093
(dp1094
g5
Nsg6
NsssS'motif_16'
p1095
(dp1096
S'beer_1'
p1097
(dp1098
g5
I264
sg6
I25
ssS'beer_3'
p1099
(dp1100
g5
I40
sg6
I15
ssS'beer_2'
p1101
(dp1102
g5
I81
sg6
I12
ssg11
(lp1103
S'fragment_83.0604_C4H7N2'
p1104
aS'fragment_56.0498_C3H6N'
p1105
aS'fragment_129.0658_C5H9N2O2'
p1106
asg15
S'Imidazole group linked to a carboxylgroup through one CH2 group i.e. like in imidazole acetic acid - Prevalent in Beer1'
p1107
sS'beer_4'
p1108
(dp1109
g5
Nsg6
NsssS'motif_15'
p1110
(dp1111
S'beer_1'
p1112
(dp1113
g5
I157
sg6
I27
ssS'beer_3'
p1114
(dp1115
g5
I280
sg6
I30
ssS'beer_2'
p1116
(dp1117
g5
I136
sg6
I30
ssg11
(lp1118
S'loss_60.0210_C2H4O2'
p1119
asg15
S'Loss possibly indicative of carboxylic acid group with 1-carbon attached.'
p1120
sS'beer_4'
p1121
(dp1122
g5
I36
sg6
I29
sssS'motif_14'
p1123
(dp1124
S'beer_1'
p1125
(dp1126
g5
I263
sg6
I36
ssS'beer_3'
p1127
(dp1128
g5
I151
sg6
I35
ssS'beer_2'
p1129
(dp1130
g5
I90
sg6
I31
ssg11
(lp1131
S'fragment_116.0712_C5H10NO2'
p1132
aS'loss_115.0630_C5H9NO2'
p1133
asg15
S'Fragment and loss of [proline-H2O] - indicative for conjugated proline \xe2\x80\x93 EF fits'
p1134
sS'beer_4'
p1135
(dp1136
g5
I202
sg6
I19
sssS'motif_13'
p1137
(dp1138
S'beer_1'
p1139
(dp1140
g5
I38
sg6
I39
ssS'beer_3'
p1141
(dp1142
g5
I60
sg6
I40
ssS'beer_2'
p1143
(dp1144
g5
I45
sg6
I42
ssg11
(lp1145
S'loss_36.0183_H4O2'
p1146
asg15
S'Double water loss i.e. 2*H20 \xe2\x80\x93 Generic feature for metabolites containing several free OH groups attached to a aliphatic chain like sugars.'
p1147
sS'beer_4'
p1148
(dp1149
g5
I89
sg6
I44
sssS'motif_12'
p1150
(dp1151
S'beer_1'
p1152
(dp1153
g5
I103
sg6
I41
ssS'beer_3'
p1154
(dp1155
g5
I214
sg6
I57
ssS'beer_2'
p1156
(dp1157
g5
I61
sg6
I64
ssg11
(lp1158
S'loss_17.0247_NH3'
p1159
asg15
S'Amine loss - Indicative for free NH2 group in fragmented molecule'
p1160
sS'beer_4'
p1161
(dp1162
g5
I205
sg6
I41
sssS'motif_11'
p1163
(dp1164
S'beer_1'
p1165
(dp1166
g5
I111
sg6
I123
ssS'beer_3'
p1167
(dp1168
g5
I174
sg6
I114
ssS'beer_2'
p1169
(dp1170
g5
I63
sg6
I147
ssg11
(lp1171
S'fragment_84.0442_C4H6NO'
p1172
aS'fragment_56.0498_C3H6N'
p1173
aS'fragment_130.0505_C5H8NO3'
p1174
asg15
S'Fragment ions indicative for pyroglutamic acid (pyroglutamate) or glutamine (both in MzCloud) \xe2\x80\x93 structure can be formed from glutamic acid (glutamate) in the mass spectrometer as well.'
p1175
sS'beer_4'
p1176
(dp1177
g5
I170
sg6
I114
sssS'motif_10'
p1178
(dp1179
S'beer_1'
p1180
(dp1181
g5
I129
sg6
I18
ssS'beer_3'
p1182
(dp1183
g5
I98
sg6
I23
ssS'beer_2'
p1184
(dp1185
g5
I37
sg6
I22
ssg11
(lp1186
S'fragment_98.0600_C5H8NO'
p1187
aS'fragment_144.0658_C6H10NO3'
p1188
asg15
S'Fragment ions possibly indicative for N-Methyl-oxo-pyrrolidinecarboxylic acid like structure (loss of free carboxyl group)'
p1189
sS'beer_4'
p1190
(dp1191
g5
I28
sg6
I22
sssS'motif_19'
p1192
(dp1193
S'beer_1'
p1194
(dp1195
g5
I165
sg6
I56
ssS'beer_3'
p1196
(dp1197
g5
I45
sg6
I56
ssS'beer_2'
p1198
(dp1199
g5
I53
sg6
I77
ssg11
(lp1200
S'fragment_84.0808_C5H10N'
p1201
aS'fragment_56.0498_C3H6N'
p1202
aS'fragment_67.0546_C5H7'
p1203
asg15
S'Fragment ions indicative for pipecolic acid (pipecolate) (MzCloud) - Quite prevalent especially in Beer2'
p1204
sS'beer_4'
p1205
(dp1206
g5
I79
sg6
I48
sssS'motif_18'
p1207
(dp1208
S'beer_1'
p1209
(dp1210
g5
I226
sg6
I75
ssS'beer_3'
p1211
(dp1212
g5
I276
sg6
I20
ssS'beer_2'
p1213
(dp1214
g5
I72
sg6
I38
ssg11
(lp1215
S'fragment_105.0702_C8H9'
p1216
aS'fragment_79.0541_C6H7'
p1217
aS'fragment_91.0541_C7H7'
p1218
aS'fragment_53.0388_C4H5'
p1219
asg15
S'Alkyl aromatic substructure \xe2\x80\x93 indicative for aromatic ring with 2-carbon alkyl chain attached i.e. phenylethene fragment from ethylbenzene as a result of the fragmentation process.'
p1220
sS'beer_4'
p1221
(dp1222
g5
I68
sg6
I39
sssS'motif_84'
p1223
(dp1224
S'beer_1'
p1225
(dp1226
g5
Nsg6
NssS'beer_3'
p1227
(dp1228
g5
Nsg6
NssS'beer_2'
p1229
(dp1230
g5
I13
sg6
I10
ssg11
(lp1231
S'fragment_126.0600_C7H8NO'
p1232
aS'fragment_94.0648_C6H8N'
p1233
asg15
S'Unclear yet what these fragments relate to.'
p1234
sS'beer_4'
p1235
(dp1236
g5
I282
sg6
I14
sssS'motif_85'
p1237
(dp1238
S'beer_1'
p1239
(dp1240
g5
Nsg6
NssS'beer_3'
p1241
(dp1242
g5
I35
sg6
I11
ssS'beer_2'
p1243
(dp1244
g5
Nsg6
Nssg11
(lp1245
S'fragment_95.0494_C6H7O'
p1246
aS'fragment_137.0600_C8H9O2'
p1247
asg15
S'Unclear yet what these fragments relate to.'
p1248
sS'beer_4'
p1249
(dp1250
g5
I161
sg6
I18
sssS'motif_80'
p1251
(dp1252
S'beer_1'
p1253
(dp1254
g5
I130
sg6
I11
ssS'beer_3'
p1255
(dp1256
g5
I211
sg6
I24
ssS'beer_2'
p1257
(dp1258
g5
I29
sg6
I18
ssg11
(lp1259
S'loss_59.0370_C2H5NO'
p1260
aS'fragment_114.0912_C6H12NO'
p1261
aS'fragment_72.0447_C3H6NO'
p1262
aS'fragment_60.0448_C2H6NO'
p1263
asg15
S'Fragment ions indicative for N-acetylputrescine substructure (MzCloud)'
p1264
sS'beer_4'
p1265
(dp1266
g5
I181
sg6
I17
sssS'motif_81'
p1267
(dp1268
S'beer_1'
p1269
(dp1270
g5
Nsg6
NssS'beer_3'
p1271
(dp1272
g5
I156
sg6
I22
ssS'beer_2'
p1273
(dp1274
g5
I92
sg6
I27
ssg11
(lp1275
S'loss_132.0421_C5H8O4'
p1276
asg15
S'[Ribose (pentose C5-sugar)-H2O] related loss \xe2\x80\x93  indicative for conjugated ribose sugar - EF fits'
p1277
sS'beer_4'
p1278
(dp1279
g5
I99
sg6
I36
sssS'motif_82'
p1280
(dp1281
S'beer_1'
p1282
(dp1283
g5
I201
sg6
I9
ssS'beer_3'
p1284
(dp1285
g5
I270
sg6
I8
ssS'beer_2'
p1286
(dp1287
g5
I185
sg6
I8
ssg11
(lp1288
S'fragment_206.1024_C8H16NO5'
p1289
aS'fragment_86.0602_C4H8NO'
p1290
aS'fragment_74.0600_C3H8NO'
p1291
asg15
S'Unclear yet what these fragments relate to.'
p1292
sS'beer_4'
p1293
(dp1294
g5
I246
sg6
I12
sssS'motif_83'
p1295
(dp1296
S'beer_1'
p1297
(dp1298
g5
I77
sg6
I10
ssS'beer_3'
p1299
(dp1300
g5
I23
sg6
I16
ssS'beer_2'
p1301
(dp1302
g5
I135
sg6
I16
ssg11
(lp1303
S'loss_144.04192_C6H8O4'
p1304
aS'loss_190.0474_C7H10O6'
p1305
aS'loss_160.0370_C6H8O5'
p1306
asg15
S'Unclear yet what these losses relate to.'
p1307
sS'beer_4'
p1308
(dp1309
g5
I244
sg6
I18
sss.